
rtarget:     file format elf64-x86-64


Disassembly of section .init:

0000000000400bb0 <_init>:
  400bb0:	48 83 ec 08          	sub    $0x8,%rsp
  400bb4:	48 8b 05 3d 44 20 00 	mov    0x20443d(%rip),%rax        # 604ff8 <__gmon_start__>
  400bbb:	48 85 c0             	test   %rax,%rax
  400bbe:	74 05                	je     400bc5 <_init+0x15>
  400bc0:	e8 2b 02 00 00       	callq  400df0 <.plt.got>
  400bc5:	48 83 c4 08          	add    $0x8,%rsp
  400bc9:	c3                   	retq   

Disassembly of section .plt:

0000000000400bd0 <.plt>:
  400bd0:	ff 35 32 44 20 00    	pushq  0x204432(%rip)        # 605008 <_GLOBAL_OFFSET_TABLE_+0x8>
  400bd6:	ff 25 34 44 20 00    	jmpq   *0x204434(%rip)        # 605010 <_GLOBAL_OFFSET_TABLE_+0x10>
  400bdc:	0f 1f 40 00          	nopl   0x0(%rax)

0000000000400be0 <strcasecmp@plt>:
  400be0:	ff 25 32 44 20 00    	jmpq   *0x204432(%rip)        # 605018 <strcasecmp@GLIBC_2.2.5>
  400be6:	68 00 00 00 00       	pushq  $0x0
  400beb:	e9 e0 ff ff ff       	jmpq   400bd0 <.plt>

0000000000400bf0 <__errno_location@plt>:
  400bf0:	ff 25 2a 44 20 00    	jmpq   *0x20442a(%rip)        # 605020 <__errno_location@GLIBC_2.2.5>
  400bf6:	68 01 00 00 00       	pushq  $0x1
  400bfb:	e9 d0 ff ff ff       	jmpq   400bd0 <.plt>

0000000000400c00 <srandom@plt>:
  400c00:	ff 25 22 44 20 00    	jmpq   *0x204422(%rip)        # 605028 <srandom@GLIBC_2.2.5>
  400c06:	68 02 00 00 00       	pushq  $0x2
  400c0b:	e9 c0 ff ff ff       	jmpq   400bd0 <.plt>

0000000000400c10 <strncmp@plt>:
  400c10:	ff 25 1a 44 20 00    	jmpq   *0x20441a(%rip)        # 605030 <strncmp@GLIBC_2.2.5>
  400c16:	68 03 00 00 00       	pushq  $0x3
  400c1b:	e9 b0 ff ff ff       	jmpq   400bd0 <.plt>

0000000000400c20 <strcpy@plt>:
  400c20:	ff 25 12 44 20 00    	jmpq   *0x204412(%rip)        # 605038 <strcpy@GLIBC_2.2.5>
  400c26:	68 04 00 00 00       	pushq  $0x4
  400c2b:	e9 a0 ff ff ff       	jmpq   400bd0 <.plt>

0000000000400c30 <puts@plt>:
  400c30:	ff 25 0a 44 20 00    	jmpq   *0x20440a(%rip)        # 605040 <puts@GLIBC_2.2.5>
  400c36:	68 05 00 00 00       	pushq  $0x5
  400c3b:	e9 90 ff ff ff       	jmpq   400bd0 <.plt>

0000000000400c40 <write@plt>:
  400c40:	ff 25 02 44 20 00    	jmpq   *0x204402(%rip)        # 605048 <write@GLIBC_2.2.5>
  400c46:	68 06 00 00 00       	pushq  $0x6
  400c4b:	e9 80 ff ff ff       	jmpq   400bd0 <.plt>

0000000000400c50 <mmap@plt>:
  400c50:	ff 25 fa 43 20 00    	jmpq   *0x2043fa(%rip)        # 605050 <mmap@GLIBC_2.2.5>
  400c56:	68 07 00 00 00       	pushq  $0x7
  400c5b:	e9 70 ff ff ff       	jmpq   400bd0 <.plt>

0000000000400c60 <printf@plt>:
  400c60:	ff 25 f2 43 20 00    	jmpq   *0x2043f2(%rip)        # 605058 <printf@GLIBC_2.2.5>
  400c66:	68 08 00 00 00       	pushq  $0x8
  400c6b:	e9 60 ff ff ff       	jmpq   400bd0 <.plt>

0000000000400c70 <memset@plt>:
  400c70:	ff 25 ea 43 20 00    	jmpq   *0x2043ea(%rip)        # 605060 <memset@GLIBC_2.2.5>
  400c76:	68 09 00 00 00       	pushq  $0x9
  400c7b:	e9 50 ff ff ff       	jmpq   400bd0 <.plt>

0000000000400c80 <alarm@plt>:
  400c80:	ff 25 e2 43 20 00    	jmpq   *0x2043e2(%rip)        # 605068 <alarm@GLIBC_2.2.5>
  400c86:	68 0a 00 00 00       	pushq  $0xa
  400c8b:	e9 40 ff ff ff       	jmpq   400bd0 <.plt>

0000000000400c90 <close@plt>:
  400c90:	ff 25 da 43 20 00    	jmpq   *0x2043da(%rip)        # 605070 <close@GLIBC_2.2.5>
  400c96:	68 0b 00 00 00       	pushq  $0xb
  400c9b:	e9 30 ff ff ff       	jmpq   400bd0 <.plt>

0000000000400ca0 <read@plt>:
  400ca0:	ff 25 d2 43 20 00    	jmpq   *0x2043d2(%rip)        # 605078 <read@GLIBC_2.2.5>
  400ca6:	68 0c 00 00 00       	pushq  $0xc
  400cab:	e9 20 ff ff ff       	jmpq   400bd0 <.plt>

0000000000400cb0 <__libc_start_main@plt>:
  400cb0:	ff 25 ca 43 20 00    	jmpq   *0x2043ca(%rip)        # 605080 <__libc_start_main@GLIBC_2.2.5>
  400cb6:	68 0d 00 00 00       	pushq  $0xd
  400cbb:	e9 10 ff ff ff       	jmpq   400bd0 <.plt>

0000000000400cc0 <signal@plt>:
  400cc0:	ff 25 c2 43 20 00    	jmpq   *0x2043c2(%rip)        # 605088 <signal@GLIBC_2.2.5>
  400cc6:	68 0e 00 00 00       	pushq  $0xe
  400ccb:	e9 00 ff ff ff       	jmpq   400bd0 <.plt>

0000000000400cd0 <gethostbyname@plt>:
  400cd0:	ff 25 ba 43 20 00    	jmpq   *0x2043ba(%rip)        # 605090 <gethostbyname@GLIBC_2.2.5>
  400cd6:	68 0f 00 00 00       	pushq  $0xf
  400cdb:	e9 f0 fe ff ff       	jmpq   400bd0 <.plt>

0000000000400ce0 <fprintf@plt>:
  400ce0:	ff 25 b2 43 20 00    	jmpq   *0x2043b2(%rip)        # 605098 <fprintf@GLIBC_2.2.5>
  400ce6:	68 10 00 00 00       	pushq  $0x10
  400ceb:	e9 e0 fe ff ff       	jmpq   400bd0 <.plt>

0000000000400cf0 <strtol@plt>:
  400cf0:	ff 25 aa 43 20 00    	jmpq   *0x2043aa(%rip)        # 6050a0 <strtol@GLIBC_2.2.5>
  400cf6:	68 11 00 00 00       	pushq  $0x11
  400cfb:	e9 d0 fe ff ff       	jmpq   400bd0 <.plt>

0000000000400d00 <memcpy@plt>:
  400d00:	ff 25 a2 43 20 00    	jmpq   *0x2043a2(%rip)        # 6050a8 <memcpy@GLIBC_2.14>
  400d06:	68 12 00 00 00       	pushq  $0x12
  400d0b:	e9 c0 fe ff ff       	jmpq   400bd0 <.plt>

0000000000400d10 <time@plt>:
  400d10:	ff 25 9a 43 20 00    	jmpq   *0x20439a(%rip)        # 6050b0 <time@GLIBC_2.2.5>
  400d16:	68 13 00 00 00       	pushq  $0x13
  400d1b:	e9 b0 fe ff ff       	jmpq   400bd0 <.plt>

0000000000400d20 <random@plt>:
  400d20:	ff 25 92 43 20 00    	jmpq   *0x204392(%rip)        # 6050b8 <random@GLIBC_2.2.5>
  400d26:	68 14 00 00 00       	pushq  $0x14
  400d2b:	e9 a0 fe ff ff       	jmpq   400bd0 <.plt>

0000000000400d30 <_IO_getc@plt>:
  400d30:	ff 25 8a 43 20 00    	jmpq   *0x20438a(%rip)        # 6050c0 <_IO_getc@GLIBC_2.2.5>
  400d36:	68 15 00 00 00       	pushq  $0x15
  400d3b:	e9 90 fe ff ff       	jmpq   400bd0 <.plt>

0000000000400d40 <__isoc99_sscanf@plt>:
  400d40:	ff 25 82 43 20 00    	jmpq   *0x204382(%rip)        # 6050c8 <__isoc99_sscanf@GLIBC_2.7>
  400d46:	68 16 00 00 00       	pushq  $0x16
  400d4b:	e9 80 fe ff ff       	jmpq   400bd0 <.plt>

0000000000400d50 <munmap@plt>:
  400d50:	ff 25 7a 43 20 00    	jmpq   *0x20437a(%rip)        # 6050d0 <munmap@GLIBC_2.2.5>
  400d56:	68 17 00 00 00       	pushq  $0x17
  400d5b:	e9 70 fe ff ff       	jmpq   400bd0 <.plt>

0000000000400d60 <bcopy@plt>:
  400d60:	ff 25 72 43 20 00    	jmpq   *0x204372(%rip)        # 6050d8 <bcopy@GLIBC_2.2.5>
  400d66:	68 18 00 00 00       	pushq  $0x18
  400d6b:	e9 60 fe ff ff       	jmpq   400bd0 <.plt>

0000000000400d70 <fopen@plt>:
  400d70:	ff 25 6a 43 20 00    	jmpq   *0x20436a(%rip)        # 6050e0 <fopen@GLIBC_2.2.5>
  400d76:	68 19 00 00 00       	pushq  $0x19
  400d7b:	e9 50 fe ff ff       	jmpq   400bd0 <.plt>

0000000000400d80 <getopt@plt>:
  400d80:	ff 25 62 43 20 00    	jmpq   *0x204362(%rip)        # 6050e8 <getopt@GLIBC_2.2.5>
  400d86:	68 1a 00 00 00       	pushq  $0x1a
  400d8b:	e9 40 fe ff ff       	jmpq   400bd0 <.plt>

0000000000400d90 <strtoul@plt>:
  400d90:	ff 25 5a 43 20 00    	jmpq   *0x20435a(%rip)        # 6050f0 <strtoul@GLIBC_2.2.5>
  400d96:	68 1b 00 00 00       	pushq  $0x1b
  400d9b:	e9 30 fe ff ff       	jmpq   400bd0 <.plt>

0000000000400da0 <gethostname@plt>:
  400da0:	ff 25 52 43 20 00    	jmpq   *0x204352(%rip)        # 6050f8 <gethostname@GLIBC_2.2.5>
  400da6:	68 1c 00 00 00       	pushq  $0x1c
  400dab:	e9 20 fe ff ff       	jmpq   400bd0 <.plt>

0000000000400db0 <sprintf@plt>:
  400db0:	ff 25 4a 43 20 00    	jmpq   *0x20434a(%rip)        # 605100 <sprintf@GLIBC_2.2.5>
  400db6:	68 1d 00 00 00       	pushq  $0x1d
  400dbb:	e9 10 fe ff ff       	jmpq   400bd0 <.plt>

0000000000400dc0 <exit@plt>:
  400dc0:	ff 25 42 43 20 00    	jmpq   *0x204342(%rip)        # 605108 <exit@GLIBC_2.2.5>
  400dc6:	68 1e 00 00 00       	pushq  $0x1e
  400dcb:	e9 00 fe ff ff       	jmpq   400bd0 <.plt>

0000000000400dd0 <connect@plt>:
  400dd0:	ff 25 3a 43 20 00    	jmpq   *0x20433a(%rip)        # 605110 <connect@GLIBC_2.2.5>
  400dd6:	68 1f 00 00 00       	pushq  $0x1f
  400ddb:	e9 f0 fd ff ff       	jmpq   400bd0 <.plt>

0000000000400de0 <socket@plt>:
  400de0:	ff 25 32 43 20 00    	jmpq   *0x204332(%rip)        # 605118 <socket@GLIBC_2.2.5>
  400de6:	68 20 00 00 00       	pushq  $0x20
  400deb:	e9 e0 fd ff ff       	jmpq   400bd0 <.plt>

Disassembly of section .plt.got:

0000000000400df0 <.plt.got>:
  400df0:	ff 25 02 42 20 00    	jmpq   *0x204202(%rip)        # 604ff8 <__gmon_start__>
  400df6:	66 90                	xchg   %ax,%ax

Disassembly of section .text:

0000000000400e00 <_start>:
  400e00:	31 ed                	xor    %ebp,%ebp
  400e02:	49 89 d1             	mov    %rdx,%r9
  400e05:	5e                   	pop    %rsi
  400e06:	48 89 e2             	mov    %rsp,%rdx
  400e09:	48 83 e4 f0          	and    $0xfffffffffffffff0,%rsp
  400e0d:	50                   	push   %rax
  400e0e:	54                   	push   %rsp
  400e0f:	49 c7 c0 f0 2c 40 00 	mov    $0x402cf0,%r8
  400e16:	48 c7 c1 80 2c 40 00 	mov    $0x402c80,%rcx
  400e1d:	48 c7 c7 c0 10 40 00 	mov    $0x4010c0,%rdi
  400e24:	e8 87 fe ff ff       	callq  400cb0 <__libc_start_main@plt>
  400e29:	f4                   	hlt    
  400e2a:	66 0f 1f 44 00 00    	nopw   0x0(%rax,%rax,1)

0000000000400e30 <deregister_tm_clones>:
  400e30:	b8 97 54 60 00       	mov    $0x605497,%eax
  400e35:	55                   	push   %rbp
  400e36:	48 2d 90 54 60 00    	sub    $0x605490,%rax
  400e3c:	48 83 f8 0e          	cmp    $0xe,%rax
  400e40:	48 89 e5             	mov    %rsp,%rbp
  400e43:	77 02                	ja     400e47 <deregister_tm_clones+0x17>
  400e45:	5d                   	pop    %rbp
  400e46:	c3                   	retq   
  400e47:	b8 00 00 00 00       	mov    $0x0,%eax
  400e4c:	48 85 c0             	test   %rax,%rax
  400e4f:	74 f4                	je     400e45 <deregister_tm_clones+0x15>
  400e51:	5d                   	pop    %rbp
  400e52:	bf 90 54 60 00       	mov    $0x605490,%edi
  400e57:	ff e0                	jmpq   *%rax
  400e59:	0f 1f 80 00 00 00 00 	nopl   0x0(%rax)

0000000000400e60 <register_tm_clones>:
  400e60:	b8 90 54 60 00       	mov    $0x605490,%eax
  400e65:	55                   	push   %rbp
  400e66:	48 2d 90 54 60 00    	sub    $0x605490,%rax
  400e6c:	48 c1 f8 03          	sar    $0x3,%rax
  400e70:	48 89 e5             	mov    %rsp,%rbp
  400e73:	48 89 c2             	mov    %rax,%rdx
  400e76:	48 c1 ea 3f          	shr    $0x3f,%rdx
  400e7a:	48 01 d0             	add    %rdx,%rax
  400e7d:	48 d1 f8             	sar    %rax
  400e80:	75 02                	jne    400e84 <register_tm_clones+0x24>
  400e82:	5d                   	pop    %rbp
  400e83:	c3                   	retq   
  400e84:	ba 00 00 00 00       	mov    $0x0,%edx
  400e89:	48 85 d2             	test   %rdx,%rdx
  400e8c:	74 f4                	je     400e82 <register_tm_clones+0x22>
  400e8e:	5d                   	pop    %rbp
  400e8f:	48 89 c6             	mov    %rax,%rsi
  400e92:	bf 90 54 60 00       	mov    $0x605490,%edi
  400e97:	ff e2                	jmpq   *%rdx
  400e99:	0f 1f 80 00 00 00 00 	nopl   0x0(%rax)

0000000000400ea0 <__do_global_dtors_aux>:
  400ea0:	80 3d 11 46 20 00 00 	cmpb   $0x0,0x204611(%rip)        # 6054b8 <completed.6355>
  400ea7:	75 11                	jne    400eba <__do_global_dtors_aux+0x1a>
  400ea9:	55                   	push   %rbp
  400eaa:	48 89 e5             	mov    %rsp,%rbp
  400ead:	e8 7e ff ff ff       	callq  400e30 <deregister_tm_clones>
  400eb2:	5d                   	pop    %rbp
  400eb3:	c6 05 fe 45 20 00 01 	movb   $0x1,0x2045fe(%rip)        # 6054b8 <completed.6355>
  400eba:	f3 c3                	repz retq 
  400ebc:	0f 1f 40 00          	nopl   0x0(%rax)

0000000000400ec0 <frame_dummy>:
  400ec0:	48 83 3d 58 3f 20 00 	cmpq   $0x0,0x203f58(%rip)        # 604e20 <__JCR_END__>
  400ec7:	00 
  400ec8:	74 1e                	je     400ee8 <frame_dummy+0x28>
  400eca:	b8 00 00 00 00       	mov    $0x0,%eax
  400ecf:	48 85 c0             	test   %rax,%rax
  400ed2:	74 14                	je     400ee8 <frame_dummy+0x28>
  400ed4:	55                   	push   %rbp
  400ed5:	bf 20 4e 60 00       	mov    $0x604e20,%edi
  400eda:	48 89 e5             	mov    %rsp,%rbp
  400edd:	ff d0                	callq  *%rax
  400edf:	5d                   	pop    %rbp
  400ee0:	e9 7b ff ff ff       	jmpq   400e60 <register_tm_clones>
  400ee5:	0f 1f 00             	nopl   (%rax)
  400ee8:	e9 73 ff ff ff       	jmpq   400e60 <register_tm_clones>
  400eed:	0f 1f 00             	nopl   (%rax)

0000000000400ef0 <usage>:
  400ef0:	48 83 ec 08          	sub    $0x8,%rsp
  400ef4:	48 89 fe             	mov    %rdi,%rsi
  400ef7:	83 3d ea 45 20 00 00 	cmpl   $0x0,0x2045ea(%rip)        # 6054e8 <is_checker>
  400efe:	74 39                	je     400f39 <usage+0x49>
  400f00:	bf 10 2d 40 00       	mov    $0x402d10,%edi
  400f05:	b8 00 00 00 00       	mov    $0x0,%eax
  400f0a:	e8 51 fd ff ff       	callq  400c60 <printf@plt>
  400f0f:	bf 48 2d 40 00       	mov    $0x402d48,%edi
  400f14:	e8 17 fd ff ff       	callq  400c30 <puts@plt>
  400f19:	bf c0 2e 40 00       	mov    $0x402ec0,%edi
  400f1e:	e8 0d fd ff ff       	callq  400c30 <puts@plt>
  400f23:	bf 70 2d 40 00       	mov    $0x402d70,%edi
  400f28:	e8 03 fd ff ff       	callq  400c30 <puts@plt>
  400f2d:	bf da 2e 40 00       	mov    $0x402eda,%edi
  400f32:	e8 f9 fc ff ff       	callq  400c30 <puts@plt>
  400f37:	eb 2d                	jmp    400f66 <usage+0x76>
  400f39:	bf f6 2e 40 00       	mov    $0x402ef6,%edi
  400f3e:	b8 00 00 00 00       	mov    $0x0,%eax
  400f43:	e8 18 fd ff ff       	callq  400c60 <printf@plt>
  400f48:	bf 98 2d 40 00       	mov    $0x402d98,%edi
  400f4d:	e8 de fc ff ff       	callq  400c30 <puts@plt>
  400f52:	bf c0 2d 40 00       	mov    $0x402dc0,%edi
  400f57:	e8 d4 fc ff ff       	callq  400c30 <puts@plt>
  400f5c:	bf 14 2f 40 00       	mov    $0x402f14,%edi
  400f61:	e8 ca fc ff ff       	callq  400c30 <puts@plt>
  400f66:	bf 00 00 00 00       	mov    $0x0,%edi
  400f6b:	e8 50 fe ff ff       	callq  400dc0 <exit@plt>

0000000000400f70 <initialize_target>:
  400f70:	55                   	push   %rbp
  400f71:	53                   	push   %rbx
  400f72:	48 81 ec 08 21 00 00 	sub    $0x2108,%rsp
  400f79:	89 f5                	mov    %esi,%ebp
  400f7b:	89 3d 57 45 20 00    	mov    %edi,0x204557(%rip)        # 6054d8 <check_level>
  400f81:	8b 3d c1 41 20 00    	mov    0x2041c1(%rip),%edi        # 605148 <target_id>
  400f87:	e8 d2 1c 00 00       	callq  402c5e <gencookie>
  400f8c:	89 05 52 45 20 00    	mov    %eax,0x204552(%rip)        # 6054e4 <cookie>
  400f92:	89 c7                	mov    %eax,%edi
  400f94:	e8 c5 1c 00 00       	callq  402c5e <gencookie>
  400f99:	89 05 41 45 20 00    	mov    %eax,0x204541(%rip)        # 6054e0 <authkey>
  400f9f:	8b 05 a3 41 20 00    	mov    0x2041a3(%rip),%eax        # 605148 <target_id>
  400fa5:	8d 78 01             	lea    0x1(%rax),%edi
  400fa8:	e8 53 fc ff ff       	callq  400c00 <srandom@plt>
  400fad:	e8 6e fd ff ff       	callq  400d20 <random@plt>
  400fb2:	89 c7                	mov    %eax,%edi
  400fb4:	e8 ca 02 00 00       	callq  401283 <scramble>
  400fb9:	89 c3                	mov    %eax,%ebx
  400fbb:	85 ed                	test   %ebp,%ebp
  400fbd:	74 18                	je     400fd7 <initialize_target+0x67>
  400fbf:	bf 00 00 00 00       	mov    $0x0,%edi
  400fc4:	e8 47 fd ff ff       	callq  400d10 <time@plt>
  400fc9:	89 c7                	mov    %eax,%edi
  400fcb:	e8 30 fc ff ff       	callq  400c00 <srandom@plt>
  400fd0:	e8 4b fd ff ff       	callq  400d20 <random@plt>
  400fd5:	eb 05                	jmp    400fdc <initialize_target+0x6c>
  400fd7:	b8 00 00 00 00       	mov    $0x0,%eax
  400fdc:	01 c3                	add    %eax,%ebx
  400fde:	0f b7 db             	movzwl %bx,%ebx
  400fe1:	8d 04 dd 00 01 00 00 	lea    0x100(,%rbx,8),%eax
  400fe8:	89 c0                	mov    %eax,%eax
  400fea:	48 89 05 8f 44 20 00 	mov    %rax,0x20448f(%rip)        # 605480 <buf_offset>
  400ff1:	c6 05 10 51 20 00 72 	movb   $0x72,0x205110(%rip)        # 606108 <target_prefix>
  400ff8:	83 3d 89 44 20 00 00 	cmpl   $0x0,0x204489(%rip)        # 605488 <notify>
  400fff:	0f 84 b1 00 00 00    	je     4010b6 <initialize_target+0x146>
  401005:	83 3d dc 44 20 00 00 	cmpl   $0x0,0x2044dc(%rip)        # 6054e8 <is_checker>
  40100c:	0f 85 a4 00 00 00    	jne    4010b6 <initialize_target+0x146>
  401012:	be 00 01 00 00       	mov    $0x100,%esi
  401017:	48 89 e7             	mov    %rsp,%rdi
  40101a:	e8 81 fd ff ff       	callq  400da0 <gethostname@plt>
  40101f:	85 c0                	test   %eax,%eax
  401021:	74 25                	je     401048 <initialize_target+0xd8>
  401023:	bf f0 2d 40 00       	mov    $0x402df0,%edi
  401028:	e8 03 fc ff ff       	callq  400c30 <puts@plt>
  40102d:	bf 08 00 00 00       	mov    $0x8,%edi
  401032:	e8 89 fd ff ff       	callq  400dc0 <exit@plt>
  401037:	48 89 e6             	mov    %rsp,%rsi
  40103a:	e8 a1 fb ff ff       	callq  400be0 <strcasecmp@plt>
  40103f:	85 c0                	test   %eax,%eax
  401041:	74 21                	je     401064 <initialize_target+0xf4>
  401043:	83 c3 01             	add    $0x1,%ebx
  401046:	eb 05                	jmp    40104d <initialize_target+0xdd>
  401048:	bb 00 00 00 00       	mov    $0x0,%ebx
  40104d:	48 63 c3             	movslq %ebx,%rax
  401050:	48 8b 3c c5 60 51 60 	mov    0x605160(,%rax,8),%rdi
  401057:	00 
  401058:	48 85 ff             	test   %rdi,%rdi
  40105b:	75 da                	jne    401037 <initialize_target+0xc7>
  40105d:	b8 00 00 00 00       	mov    $0x0,%eax
  401062:	eb 05                	jmp    401069 <initialize_target+0xf9>
  401064:	b8 01 00 00 00       	mov    $0x1,%eax
  401069:	85 c0                	test   %eax,%eax
  40106b:	75 17                	jne    401084 <initialize_target+0x114>
  40106d:	48 89 e6             	mov    %rsp,%rsi
  401070:	bf 28 2e 40 00       	mov    $0x402e28,%edi
  401075:	e8 e6 fb ff ff       	callq  400c60 <printf@plt>
  40107a:	bf 08 00 00 00       	mov    $0x8,%edi
  40107f:	e8 3c fd ff ff       	callq  400dc0 <exit@plt>
  401084:	48 8d bc 24 00 01 00 	lea    0x100(%rsp),%rdi
  40108b:	00 
  40108c:	e8 49 19 00 00       	callq  4029da <init_driver>
  401091:	85 c0                	test   %eax,%eax
  401093:	79 21                	jns    4010b6 <initialize_target+0x146>
  401095:	48 8d b4 24 00 01 00 	lea    0x100(%rsp),%rsi
  40109c:	00 
  40109d:	bf 68 2e 40 00       	mov    $0x402e68,%edi
  4010a2:	b8 00 00 00 00       	mov    $0x0,%eax
  4010a7:	e8 b4 fb ff ff       	callq  400c60 <printf@plt>
  4010ac:	bf 08 00 00 00       	mov    $0x8,%edi
  4010b1:	e8 0a fd ff ff       	callq  400dc0 <exit@plt>
  4010b6:	48 81 c4 08 21 00 00 	add    $0x2108,%rsp
  4010bd:	5b                   	pop    %rbx
  4010be:	5d                   	pop    %rbp
  4010bf:	c3                   	retq   

00000000004010c0 <main>:
  4010c0:	41 56                	push   %r14
  4010c2:	41 55                	push   %r13
  4010c4:	41 54                	push   %r12
  4010c6:	55                   	push   %rbp
  4010c7:	53                   	push   %rbx
  4010c8:	41 89 fc             	mov    %edi,%r12d
  4010cb:	48 89 f3             	mov    %rsi,%rbx
  4010ce:	be 01 1e 40 00       	mov    $0x401e01,%esi
  4010d3:	bf 0b 00 00 00       	mov    $0xb,%edi
  4010d8:	e8 e3 fb ff ff       	callq  400cc0 <signal@plt>
  4010dd:	be b3 1d 40 00       	mov    $0x401db3,%esi
  4010e2:	bf 07 00 00 00       	mov    $0x7,%edi
  4010e7:	e8 d4 fb ff ff       	callq  400cc0 <signal@plt>
  4010ec:	be 4f 1e 40 00       	mov    $0x401e4f,%esi
  4010f1:	bf 04 00 00 00       	mov    $0x4,%edi
  4010f6:	e8 c5 fb ff ff       	callq  400cc0 <signal@plt>
  4010fb:	83 3d e6 43 20 00 00 	cmpl   $0x0,0x2043e6(%rip)        # 6054e8 <is_checker>
  401102:	74 20                	je     401124 <main+0x64>
  401104:	be 9d 1e 40 00       	mov    $0x401e9d,%esi
  401109:	bf 0e 00 00 00       	mov    $0xe,%edi
  40110e:	e8 ad fb ff ff       	callq  400cc0 <signal@plt>
  401113:	bf 05 00 00 00       	mov    $0x5,%edi
  401118:	e8 63 fb ff ff       	callq  400c80 <alarm@plt>
  40111d:	bd 32 2f 40 00       	mov    $0x402f32,%ebp
  401122:	eb 05                	jmp    401129 <main+0x69>
  401124:	bd 2d 2f 40 00       	mov    $0x402f2d,%ebp
  401129:	48 8b 05 70 43 20 00 	mov    0x204370(%rip),%rax        # 6054a0 <stdin@@GLIBC_2.2.5>
  401130:	48 89 05 99 43 20 00 	mov    %rax,0x204399(%rip)        # 6054d0 <infile>
  401137:	41 bd 00 00 00 00    	mov    $0x0,%r13d
  40113d:	41 be 00 00 00 00    	mov    $0x0,%r14d
  401143:	e9 b9 00 00 00       	jmpq   401201 <main+0x141>
  401148:	83 e8 61             	sub    $0x61,%eax
  40114b:	3c 10                	cmp    $0x10,%al
  40114d:	0f 87 93 00 00 00    	ja     4011e6 <main+0x126>
  401153:	0f b6 c0             	movzbl %al,%eax
  401156:	ff 24 c5 78 2f 40 00 	jmpq   *0x402f78(,%rax,8)
  40115d:	48 8b 3b             	mov    (%rbx),%rdi
  401160:	e8 8b fd ff ff       	callq  400ef0 <usage>
  401165:	be e5 31 40 00       	mov    $0x4031e5,%esi
  40116a:	48 8b 3d 37 43 20 00 	mov    0x204337(%rip),%rdi        # 6054a8 <optarg@@GLIBC_2.2.5>
  401171:	e8 fa fb ff ff       	callq  400d70 <fopen@plt>
  401176:	48 89 05 53 43 20 00 	mov    %rax,0x204353(%rip)        # 6054d0 <infile>
  40117d:	48 85 c0             	test   %rax,%rax
  401180:	75 7f                	jne    401201 <main+0x141>
  401182:	48 8b 15 1f 43 20 00 	mov    0x20431f(%rip),%rdx        # 6054a8 <optarg@@GLIBC_2.2.5>
  401189:	be 3a 2f 40 00       	mov    $0x402f3a,%esi
  40118e:	48 8b 3d 1b 43 20 00 	mov    0x20431b(%rip),%rdi        # 6054b0 <stderr@@GLIBC_2.2.5>
  401195:	e8 46 fb ff ff       	callq  400ce0 <fprintf@plt>
  40119a:	b8 01 00 00 00       	mov    $0x1,%eax
  40119f:	e9 d6 00 00 00       	jmpq   40127a <main+0x1ba>
  4011a4:	ba 10 00 00 00       	mov    $0x10,%edx
  4011a9:	be 00 00 00 00       	mov    $0x0,%esi
  4011ae:	48 8b 3d f3 42 20 00 	mov    0x2042f3(%rip),%rdi        # 6054a8 <optarg@@GLIBC_2.2.5>
  4011b5:	e8 d6 fb ff ff       	callq  400d90 <strtoul@plt>
  4011ba:	41 89 c6             	mov    %eax,%r14d
  4011bd:	eb 42                	jmp    401201 <main+0x141>
  4011bf:	ba 0a 00 00 00       	mov    $0xa,%edx
  4011c4:	be 00 00 00 00       	mov    $0x0,%esi
  4011c9:	48 8b 3d d8 42 20 00 	mov    0x2042d8(%rip),%rdi        # 6054a8 <optarg@@GLIBC_2.2.5>
  4011d0:	e8 1b fb ff ff       	callq  400cf0 <strtol@plt>
  4011d5:	41 89 c5             	mov    %eax,%r13d
  4011d8:	eb 27                	jmp    401201 <main+0x141>
  4011da:	c7 05 a4 42 20 00 00 	movl   $0x0,0x2042a4(%rip)        # 605488 <notify>
  4011e1:	00 00 00 
  4011e4:	eb 1b                	jmp    401201 <main+0x141>
  4011e6:	40 0f be f6          	movsbl %sil,%esi
  4011ea:	bf 57 2f 40 00       	mov    $0x402f57,%edi
  4011ef:	b8 00 00 00 00       	mov    $0x0,%eax
  4011f4:	e8 67 fa ff ff       	callq  400c60 <printf@plt>
  4011f9:	48 8b 3b             	mov    (%rbx),%rdi
  4011fc:	e8 ef fc ff ff       	callq  400ef0 <usage>
  401201:	48 89 ea             	mov    %rbp,%rdx
  401204:	48 89 de             	mov    %rbx,%rsi
  401207:	44 89 e7             	mov    %r12d,%edi
  40120a:	e8 71 fb ff ff       	callq  400d80 <getopt@plt>
  40120f:	89 c6                	mov    %eax,%esi
  401211:	3c ff                	cmp    $0xff,%al
  401213:	0f 85 2f ff ff ff    	jne    401148 <main+0x88>
  401219:	be 01 00 00 00       	mov    $0x1,%esi
  40121e:	44 89 ef             	mov    %r13d,%edi
  401221:	e8 4a fd ff ff       	callq  400f70 <initialize_target>
  401226:	83 3d bb 42 20 00 00 	cmpl   $0x0,0x2042bb(%rip)        # 6054e8 <is_checker>
  40122d:	74 25                	je     401254 <main+0x194>
  40122f:	44 3b 35 aa 42 20 00 	cmp    0x2042aa(%rip),%r14d        # 6054e0 <authkey>
  401236:	74 1c                	je     401254 <main+0x194>
  401238:	44 89 f6             	mov    %r14d,%esi
  40123b:	bf 90 2e 40 00       	mov    $0x402e90,%edi
  401240:	b8 00 00 00 00       	mov    $0x0,%eax
  401245:	e8 16 fa ff ff       	callq  400c60 <printf@plt>
  40124a:	b8 00 00 00 00       	mov    $0x0,%eax
  40124f:	e8 67 08 00 00       	callq  401abb <check_fail>
  401254:	8b 35 8a 42 20 00    	mov    0x20428a(%rip),%esi        # 6054e4 <cookie>
  40125a:	bf 6a 2f 40 00       	mov    $0x402f6a,%edi
  40125f:	b8 00 00 00 00       	mov    $0x0,%eax
  401264:	e8 f7 f9 ff ff       	callq  400c60 <printf@plt>
  401269:	48 8b 3d 10 42 20 00 	mov    0x204210(%rip),%rdi        # 605480 <buf_offset>
  401270:	e8 76 0c 00 00       	callq  401eeb <launch>
  401275:	b8 00 00 00 00       	mov    $0x0,%eax
  40127a:	5b                   	pop    %rbx
  40127b:	5d                   	pop    %rbp
  40127c:	41 5c                	pop    %r12
  40127e:	41 5d                	pop    %r13
  401280:	41 5e                	pop    %r14
  401282:	c3                   	retq   

0000000000401283 <scramble>:
  401283:	b8 00 00 00 00       	mov    $0x0,%eax
  401288:	eb 11                	jmp    40129b <scramble+0x18>
  40128a:	69 c8 b8 37 00 00    	imul   $0x37b8,%eax,%ecx
  401290:	01 f9                	add    %edi,%ecx
  401292:	89 c2                	mov    %eax,%edx
  401294:	89 4c 94 d0          	mov    %ecx,-0x30(%rsp,%rdx,4)
  401298:	83 c0 01             	add    $0x1,%eax
  40129b:	83 f8 09             	cmp    $0x9,%eax
  40129e:	76 ea                	jbe    40128a <scramble+0x7>
  4012a0:	8b 44 24 f4          	mov    -0xc(%rsp),%eax
  4012a4:	69 c0 e3 d4 00 00    	imul   $0xd4e3,%eax,%eax
  4012aa:	89 44 24 f4          	mov    %eax,-0xc(%rsp)
  4012ae:	8b 44 24 d0          	mov    -0x30(%rsp),%eax
  4012b2:	69 c0 b1 ba 00 00    	imul   $0xbab1,%eax,%eax
  4012b8:	89 44 24 d0          	mov    %eax,-0x30(%rsp)
  4012bc:	8b 44 24 f4          	mov    -0xc(%rsp),%eax
  4012c0:	69 c0 13 36 00 00    	imul   $0x3613,%eax,%eax
  4012c6:	89 44 24 f4          	mov    %eax,-0xc(%rsp)
  4012ca:	8b 44 24 d4          	mov    -0x2c(%rsp),%eax
  4012ce:	69 c0 bd 24 00 00    	imul   $0x24bd,%eax,%eax
  4012d4:	89 44 24 d4          	mov    %eax,-0x2c(%rsp)
  4012d8:	8b 44 24 e0          	mov    -0x20(%rsp),%eax
  4012dc:	69 c0 26 77 00 00    	imul   $0x7726,%eax,%eax
  4012e2:	89 44 24 e0          	mov    %eax,-0x20(%rsp)
  4012e6:	8b 44 24 d8          	mov    -0x28(%rsp),%eax
  4012ea:	69 c0 f4 e5 00 00    	imul   $0xe5f4,%eax,%eax
  4012f0:	89 44 24 d8          	mov    %eax,-0x28(%rsp)
  4012f4:	8b 44 24 f4          	mov    -0xc(%rsp),%eax
  4012f8:	69 c0 6f f8 00 00    	imul   $0xf86f,%eax,%eax
  4012fe:	89 44 24 f4          	mov    %eax,-0xc(%rsp)
  401302:	8b 44 24 d4          	mov    -0x2c(%rsp),%eax
  401306:	69 c0 88 e6 00 00    	imul   $0xe688,%eax,%eax
  40130c:	89 44 24 d4          	mov    %eax,-0x2c(%rsp)
  401310:	8b 44 24 d8          	mov    -0x28(%rsp),%eax
  401314:	69 c0 81 7d 00 00    	imul   $0x7d81,%eax,%eax
  40131a:	89 44 24 d8          	mov    %eax,-0x28(%rsp)
  40131e:	8b 44 24 d8          	mov    -0x28(%rsp),%eax
  401322:	69 c0 e5 ec 00 00    	imul   $0xece5,%eax,%eax
  401328:	89 44 24 d8          	mov    %eax,-0x28(%rsp)
  40132c:	8b 44 24 f0          	mov    -0x10(%rsp),%eax
  401330:	69 c0 6a ff 00 00    	imul   $0xff6a,%eax,%eax
  401336:	89 44 24 f0          	mov    %eax,-0x10(%rsp)
  40133a:	8b 44 24 d4          	mov    -0x2c(%rsp),%eax
  40133e:	69 c0 04 7e 00 00    	imul   $0x7e04,%eax,%eax
  401344:	89 44 24 d4          	mov    %eax,-0x2c(%rsp)
  401348:	8b 44 24 d0          	mov    -0x30(%rsp),%eax
  40134c:	69 c0 27 e1 00 00    	imul   $0xe127,%eax,%eax
  401352:	89 44 24 d0          	mov    %eax,-0x30(%rsp)
  401356:	8b 44 24 e4          	mov    -0x1c(%rsp),%eax
  40135a:	69 c0 78 ec 00 00    	imul   $0xec78,%eax,%eax
  401360:	89 44 24 e4          	mov    %eax,-0x1c(%rsp)
  401364:	8b 44 24 e0          	mov    -0x20(%rsp),%eax
  401368:	69 c0 e9 c8 00 00    	imul   $0xc8e9,%eax,%eax
  40136e:	89 44 24 e0          	mov    %eax,-0x20(%rsp)
  401372:	8b 44 24 f0          	mov    -0x10(%rsp),%eax
  401376:	69 c0 ff 49 00 00    	imul   $0x49ff,%eax,%eax
  40137c:	89 44 24 f0          	mov    %eax,-0x10(%rsp)
  401380:	8b 44 24 e8          	mov    -0x18(%rsp),%eax
  401384:	69 c0 c5 49 00 00    	imul   $0x49c5,%eax,%eax
  40138a:	89 44 24 e8          	mov    %eax,-0x18(%rsp)
  40138e:	8b 44 24 e8          	mov    -0x18(%rsp),%eax
  401392:	69 c0 94 76 00 00    	imul   $0x7694,%eax,%eax
  401398:	89 44 24 e8          	mov    %eax,-0x18(%rsp)
  40139c:	8b 44 24 d0          	mov    -0x30(%rsp),%eax
  4013a0:	69 c0 7b 34 00 00    	imul   $0x347b,%eax,%eax
  4013a6:	89 44 24 d0          	mov    %eax,-0x30(%rsp)
  4013aa:	8b 44 24 d8          	mov    -0x28(%rsp),%eax
  4013ae:	69 c0 fc 0a 00 00    	imul   $0xafc,%eax,%eax
  4013b4:	89 44 24 d8          	mov    %eax,-0x28(%rsp)
  4013b8:	8b 44 24 e8          	mov    -0x18(%rsp),%eax
  4013bc:	69 c0 9e 61 00 00    	imul   $0x619e,%eax,%eax
  4013c2:	89 44 24 e8          	mov    %eax,-0x18(%rsp)
  4013c6:	8b 44 24 ec          	mov    -0x14(%rsp),%eax
  4013ca:	69 c0 06 f9 00 00    	imul   $0xf906,%eax,%eax
  4013d0:	89 44 24 ec          	mov    %eax,-0x14(%rsp)
  4013d4:	8b 44 24 e8          	mov    -0x18(%rsp),%eax
  4013d8:	69 c0 07 e8 00 00    	imul   $0xe807,%eax,%eax
  4013de:	89 44 24 e8          	mov    %eax,-0x18(%rsp)
  4013e2:	8b 44 24 ec          	mov    -0x14(%rsp),%eax
  4013e6:	69 c0 8f d8 00 00    	imul   $0xd88f,%eax,%eax
  4013ec:	89 44 24 ec          	mov    %eax,-0x14(%rsp)
  4013f0:	8b 44 24 e8          	mov    -0x18(%rsp),%eax
  4013f4:	69 c0 e3 e5 00 00    	imul   $0xe5e3,%eax,%eax
  4013fa:	89 44 24 e8          	mov    %eax,-0x18(%rsp)
  4013fe:	8b 44 24 d4          	mov    -0x2c(%rsp),%eax
  401402:	69 c0 71 60 00 00    	imul   $0x6071,%eax,%eax
  401408:	89 44 24 d4          	mov    %eax,-0x2c(%rsp)
  40140c:	8b 44 24 f4          	mov    -0xc(%rsp),%eax
  401410:	69 c0 8e 0e 00 00    	imul   $0xe8e,%eax,%eax
  401416:	89 44 24 f4          	mov    %eax,-0xc(%rsp)
  40141a:	8b 44 24 d0          	mov    -0x30(%rsp),%eax
  40141e:	69 c0 d8 c2 00 00    	imul   $0xc2d8,%eax,%eax
  401424:	89 44 24 d0          	mov    %eax,-0x30(%rsp)
  401428:	8b 44 24 d0          	mov    -0x30(%rsp),%eax
  40142c:	69 c0 dc 43 00 00    	imul   $0x43dc,%eax,%eax
  401432:	89 44 24 d0          	mov    %eax,-0x30(%rsp)
  401436:	8b 44 24 d4          	mov    -0x2c(%rsp),%eax
  40143a:	69 c0 fd 01 00 00    	imul   $0x1fd,%eax,%eax
  401440:	89 44 24 d4          	mov    %eax,-0x2c(%rsp)
  401444:	8b 44 24 dc          	mov    -0x24(%rsp),%eax
  401448:	69 c0 e4 72 00 00    	imul   $0x72e4,%eax,%eax
  40144e:	89 44 24 dc          	mov    %eax,-0x24(%rsp)
  401452:	8b 44 24 d4          	mov    -0x2c(%rsp),%eax
  401456:	69 c0 92 aa 00 00    	imul   $0xaa92,%eax,%eax
  40145c:	89 44 24 d4          	mov    %eax,-0x2c(%rsp)
  401460:	8b 44 24 d0          	mov    -0x30(%rsp),%eax
  401464:	69 c0 ad 50 00 00    	imul   $0x50ad,%eax,%eax
  40146a:	89 44 24 d0          	mov    %eax,-0x30(%rsp)
  40146e:	8b 44 24 ec          	mov    -0x14(%rsp),%eax
  401472:	69 c0 82 3c 00 00    	imul   $0x3c82,%eax,%eax
  401478:	89 44 24 ec          	mov    %eax,-0x14(%rsp)
  40147c:	8b 44 24 f0          	mov    -0x10(%rsp),%eax
  401480:	69 c0 78 bc 00 00    	imul   $0xbc78,%eax,%eax
  401486:	89 44 24 f0          	mov    %eax,-0x10(%rsp)
  40148a:	8b 44 24 e8          	mov    -0x18(%rsp),%eax
  40148e:	69 c0 cb 30 00 00    	imul   $0x30cb,%eax,%eax
  401494:	89 44 24 e8          	mov    %eax,-0x18(%rsp)
  401498:	8b 44 24 ec          	mov    -0x14(%rsp),%eax
  40149c:	69 c0 6e 38 00 00    	imul   $0x386e,%eax,%eax
  4014a2:	89 44 24 ec          	mov    %eax,-0x14(%rsp)
  4014a6:	8b 44 24 dc          	mov    -0x24(%rsp),%eax
  4014aa:	69 c0 24 78 00 00    	imul   $0x7824,%eax,%eax
  4014b0:	89 44 24 dc          	mov    %eax,-0x24(%rsp)
  4014b4:	8b 44 24 ec          	mov    -0x14(%rsp),%eax
  4014b8:	69 c0 5f 09 00 00    	imul   $0x95f,%eax,%eax
  4014be:	89 44 24 ec          	mov    %eax,-0x14(%rsp)
  4014c2:	8b 44 24 e8          	mov    -0x18(%rsp),%eax
  4014c6:	69 c0 fe 85 00 00    	imul   $0x85fe,%eax,%eax
  4014cc:	89 44 24 e8          	mov    %eax,-0x18(%rsp)
  4014d0:	8b 44 24 dc          	mov    -0x24(%rsp),%eax
  4014d4:	69 c0 27 16 00 00    	imul   $0x1627,%eax,%eax
  4014da:	89 44 24 dc          	mov    %eax,-0x24(%rsp)
  4014de:	8b 44 24 d0          	mov    -0x30(%rsp),%eax
  4014e2:	69 c0 90 d4 00 00    	imul   $0xd490,%eax,%eax
  4014e8:	89 44 24 d0          	mov    %eax,-0x30(%rsp)
  4014ec:	8b 44 24 d8          	mov    -0x28(%rsp),%eax
  4014f0:	69 c0 e5 c4 00 00    	imul   $0xc4e5,%eax,%eax
  4014f6:	89 44 24 d8          	mov    %eax,-0x28(%rsp)
  4014fa:	8b 44 24 e4          	mov    -0x1c(%rsp),%eax
  4014fe:	69 c0 6c 14 00 00    	imul   $0x146c,%eax,%eax
  401504:	89 44 24 e4          	mov    %eax,-0x1c(%rsp)
  401508:	8b 44 24 f4          	mov    -0xc(%rsp),%eax
  40150c:	69 c0 b9 46 00 00    	imul   $0x46b9,%eax,%eax
  401512:	89 44 24 f4          	mov    %eax,-0xc(%rsp)
  401516:	8b 44 24 ec          	mov    -0x14(%rsp),%eax
  40151a:	69 c0 86 15 00 00    	imul   $0x1586,%eax,%eax
  401520:	89 44 24 ec          	mov    %eax,-0x14(%rsp)
  401524:	8b 44 24 f0          	mov    -0x10(%rsp),%eax
  401528:	69 c0 66 62 00 00    	imul   $0x6266,%eax,%eax
  40152e:	89 44 24 f0          	mov    %eax,-0x10(%rsp)
  401532:	8b 44 24 e0          	mov    -0x20(%rsp),%eax
  401536:	69 c0 47 76 00 00    	imul   $0x7647,%eax,%eax
  40153c:	89 44 24 e0          	mov    %eax,-0x20(%rsp)
  401540:	8b 44 24 f4          	mov    -0xc(%rsp),%eax
  401544:	69 c0 3f e1 00 00    	imul   $0xe13f,%eax,%eax
  40154a:	89 44 24 f4          	mov    %eax,-0xc(%rsp)
  40154e:	8b 44 24 d4          	mov    -0x2c(%rsp),%eax
  401552:	69 c0 3d 38 00 00    	imul   $0x383d,%eax,%eax
  401558:	89 44 24 d4          	mov    %eax,-0x2c(%rsp)
  40155c:	8b 44 24 d8          	mov    -0x28(%rsp),%eax
  401560:	69 c0 47 fa 00 00    	imul   $0xfa47,%eax,%eax
  401566:	89 44 24 d8          	mov    %eax,-0x28(%rsp)
  40156a:	8b 44 24 e4          	mov    -0x1c(%rsp),%eax
  40156e:	69 c0 ce bb 00 00    	imul   $0xbbce,%eax,%eax
  401574:	89 44 24 e4          	mov    %eax,-0x1c(%rsp)
  401578:	8b 44 24 e0          	mov    -0x20(%rsp),%eax
  40157c:	69 c0 d9 92 00 00    	imul   $0x92d9,%eax,%eax
  401582:	89 44 24 e0          	mov    %eax,-0x20(%rsp)
  401586:	8b 44 24 e8          	mov    -0x18(%rsp),%eax
  40158a:	69 c0 2a 53 00 00    	imul   $0x532a,%eax,%eax
  401590:	89 44 24 e8          	mov    %eax,-0x18(%rsp)
  401594:	8b 44 24 e4          	mov    -0x1c(%rsp),%eax
  401598:	69 c0 a5 84 00 00    	imul   $0x84a5,%eax,%eax
  40159e:	89 44 24 e4          	mov    %eax,-0x1c(%rsp)
  4015a2:	8b 44 24 f0          	mov    -0x10(%rsp),%eax
  4015a6:	69 c0 7b 8b 00 00    	imul   $0x8b7b,%eax,%eax
  4015ac:	89 44 24 f0          	mov    %eax,-0x10(%rsp)
  4015b0:	8b 44 24 dc          	mov    -0x24(%rsp),%eax
  4015b4:	69 c0 98 bf 00 00    	imul   $0xbf98,%eax,%eax
  4015ba:	89 44 24 dc          	mov    %eax,-0x24(%rsp)
  4015be:	8b 44 24 dc          	mov    -0x24(%rsp),%eax
  4015c2:	69 c0 82 bf 00 00    	imul   $0xbf82,%eax,%eax
  4015c8:	89 44 24 dc          	mov    %eax,-0x24(%rsp)
  4015cc:	8b 44 24 d8          	mov    -0x28(%rsp),%eax
  4015d0:	69 c0 73 f7 00 00    	imul   $0xf773,%eax,%eax
  4015d6:	89 44 24 d8          	mov    %eax,-0x28(%rsp)
  4015da:	8b 44 24 f0          	mov    -0x10(%rsp),%eax
  4015de:	69 c0 3e 8d 00 00    	imul   $0x8d3e,%eax,%eax
  4015e4:	89 44 24 f0          	mov    %eax,-0x10(%rsp)
  4015e8:	8b 44 24 f4          	mov    -0xc(%rsp),%eax
  4015ec:	69 c0 58 ea 00 00    	imul   $0xea58,%eax,%eax
  4015f2:	89 44 24 f4          	mov    %eax,-0xc(%rsp)
  4015f6:	8b 44 24 e8          	mov    -0x18(%rsp),%eax
  4015fa:	69 c0 ca f7 00 00    	imul   $0xf7ca,%eax,%eax
  401600:	89 44 24 e8          	mov    %eax,-0x18(%rsp)
  401604:	8b 44 24 f4          	mov    -0xc(%rsp),%eax
  401608:	69 c0 dd 62 00 00    	imul   $0x62dd,%eax,%eax
  40160e:	89 44 24 f4          	mov    %eax,-0xc(%rsp)
  401612:	8b 44 24 f0          	mov    -0x10(%rsp),%eax
  401616:	69 c0 d2 ff 00 00    	imul   $0xffd2,%eax,%eax
  40161c:	89 44 24 f0          	mov    %eax,-0x10(%rsp)
  401620:	8b 44 24 dc          	mov    -0x24(%rsp),%eax
  401624:	69 c0 da 20 00 00    	imul   $0x20da,%eax,%eax
  40162a:	89 44 24 dc          	mov    %eax,-0x24(%rsp)
  40162e:	8b 44 24 f4          	mov    -0xc(%rsp),%eax
  401632:	69 c0 d4 e1 00 00    	imul   $0xe1d4,%eax,%eax
  401638:	89 44 24 f4          	mov    %eax,-0xc(%rsp)
  40163c:	8b 44 24 d0          	mov    -0x30(%rsp),%eax
  401640:	69 c0 17 a1 00 00    	imul   $0xa117,%eax,%eax
  401646:	89 44 24 d0          	mov    %eax,-0x30(%rsp)
  40164a:	8b 44 24 d0          	mov    -0x30(%rsp),%eax
  40164e:	69 c0 d6 4d 00 00    	imul   $0x4dd6,%eax,%eax
  401654:	89 44 24 d0          	mov    %eax,-0x30(%rsp)
  401658:	8b 44 24 f0          	mov    -0x10(%rsp),%eax
  40165c:	69 c0 94 d1 00 00    	imul   $0xd194,%eax,%eax
  401662:	89 44 24 f0          	mov    %eax,-0x10(%rsp)
  401666:	8b 44 24 f4          	mov    -0xc(%rsp),%eax
  40166a:	69 c0 29 d0 00 00    	imul   $0xd029,%eax,%eax
  401670:	89 44 24 f4          	mov    %eax,-0xc(%rsp)
  401674:	8b 44 24 d8          	mov    -0x28(%rsp),%eax
  401678:	69 c0 29 7a 00 00    	imul   $0x7a29,%eax,%eax
  40167e:	89 44 24 d8          	mov    %eax,-0x28(%rsp)
  401682:	8b 44 24 e0          	mov    -0x20(%rsp),%eax
  401686:	69 c0 05 f1 00 00    	imul   $0xf105,%eax,%eax
  40168c:	89 44 24 e0          	mov    %eax,-0x20(%rsp)
  401690:	8b 44 24 d0          	mov    -0x30(%rsp),%eax
  401694:	69 c0 af bb 00 00    	imul   $0xbbaf,%eax,%eax
  40169a:	89 44 24 d0          	mov    %eax,-0x30(%rsp)
  40169e:	8b 44 24 d0          	mov    -0x30(%rsp),%eax
  4016a2:	69 c0 3f be 00 00    	imul   $0xbe3f,%eax,%eax
  4016a8:	89 44 24 d0          	mov    %eax,-0x30(%rsp)
  4016ac:	8b 44 24 d0          	mov    -0x30(%rsp),%eax
  4016b0:	69 c0 76 84 00 00    	imul   $0x8476,%eax,%eax
  4016b6:	89 44 24 d0          	mov    %eax,-0x30(%rsp)
  4016ba:	8b 44 24 e8          	mov    -0x18(%rsp),%eax
  4016be:	69 c0 4f f1 00 00    	imul   $0xf14f,%eax,%eax
  4016c4:	89 44 24 e8          	mov    %eax,-0x18(%rsp)
  4016c8:	8b 44 24 f4          	mov    -0xc(%rsp),%eax
  4016cc:	69 c0 43 ee 00 00    	imul   $0xee43,%eax,%eax
  4016d2:	89 44 24 f4          	mov    %eax,-0xc(%rsp)
  4016d6:	8b 44 24 f0          	mov    -0x10(%rsp),%eax
  4016da:	69 c0 8d bb 00 00    	imul   $0xbb8d,%eax,%eax
  4016e0:	89 44 24 f0          	mov    %eax,-0x10(%rsp)
  4016e4:	8b 44 24 ec          	mov    -0x14(%rsp),%eax
  4016e8:	69 c0 2a 57 00 00    	imul   $0x572a,%eax,%eax
  4016ee:	89 44 24 ec          	mov    %eax,-0x14(%rsp)
  4016f2:	8b 44 24 d0          	mov    -0x30(%rsp),%eax
  4016f6:	69 c0 3d 95 00 00    	imul   $0x953d,%eax,%eax
  4016fc:	89 44 24 d0          	mov    %eax,-0x30(%rsp)
  401700:	8b 44 24 d4          	mov    -0x2c(%rsp),%eax
  401704:	69 c0 6f f3 00 00    	imul   $0xf36f,%eax,%eax
  40170a:	89 44 24 d4          	mov    %eax,-0x2c(%rsp)
  40170e:	8b 44 24 d8          	mov    -0x28(%rsp),%eax
  401712:	69 c0 25 93 00 00    	imul   $0x9325,%eax,%eax
  401718:	89 44 24 d8          	mov    %eax,-0x28(%rsp)
  40171c:	8b 44 24 ec          	mov    -0x14(%rsp),%eax
  401720:	69 c0 b3 14 00 00    	imul   $0x14b3,%eax,%eax
  401726:	89 44 24 ec          	mov    %eax,-0x14(%rsp)
  40172a:	8b 44 24 f4          	mov    -0xc(%rsp),%eax
  40172e:	69 c0 77 c8 00 00    	imul   $0xc877,%eax,%eax
  401734:	89 44 24 f4          	mov    %eax,-0xc(%rsp)
  401738:	8b 44 24 d8          	mov    -0x28(%rsp),%eax
  40173c:	69 c0 fb 81 00 00    	imul   $0x81fb,%eax,%eax
  401742:	89 44 24 d8          	mov    %eax,-0x28(%rsp)
  401746:	8b 44 24 d4          	mov    -0x2c(%rsp),%eax
  40174a:	69 c0 80 3c 00 00    	imul   $0x3c80,%eax,%eax
  401750:	89 44 24 d4          	mov    %eax,-0x2c(%rsp)
  401754:	8b 44 24 ec          	mov    -0x14(%rsp),%eax
  401758:	69 c0 44 f4 00 00    	imul   $0xf444,%eax,%eax
  40175e:	89 44 24 ec          	mov    %eax,-0x14(%rsp)
  401762:	ba 00 00 00 00       	mov    $0x0,%edx
  401767:	b8 00 00 00 00       	mov    $0x0,%eax
  40176c:	eb 0b                	jmp    401779 <scramble+0x4f6>
  40176e:	89 d1                	mov    %edx,%ecx
  401770:	8b 4c 8c d0          	mov    -0x30(%rsp,%rcx,4),%ecx
  401774:	01 c8                	add    %ecx,%eax
  401776:	83 c2 01             	add    $0x1,%edx
  401779:	83 fa 09             	cmp    $0x9,%edx
  40177c:	76 f0                	jbe    40176e <scramble+0x4eb>
  40177e:	f3 c3                	repz retq 

0000000000401780 <getbuf>:
  401780:	48 83 ec 38          	sub    $0x38,%rsp
  401784:	48 89 e7             	mov    %rsp,%rdi
  401787:	e8 5e 03 00 00       	callq  401aea <Gets>
  40178c:	b8 01 00 00 00       	mov    $0x1,%eax
  401791:	48 83 c4 38          	add    $0x38,%rsp
  401795:	c3                   	retq   

0000000000401796 <touch1>:
  401796:	48 83 ec 08          	sub    $0x8,%rsp
  40179a:	c7 05 38 3d 20 00 01 	movl   $0x1,0x203d38(%rip)        # 6054dc <vlevel>
  4017a1:	00 00 00 
  4017a4:	bf 3d 30 40 00       	mov    $0x40303d,%edi
  4017a9:	e8 82 f4 ff ff       	callq  400c30 <puts@plt>
  4017ae:	bf 01 00 00 00       	mov    $0x1,%edi
  4017b3:	e8 21 05 00 00       	callq  401cd9 <validate>
  4017b8:	bf 00 00 00 00       	mov    $0x0,%edi
  4017bd:	e8 fe f5 ff ff       	callq  400dc0 <exit@plt>

00000000004017c2 <touch2>:
  4017c2:	48 83 ec 08          	sub    $0x8,%rsp
  4017c6:	89 fe                	mov    %edi,%esi
  4017c8:	c7 05 0a 3d 20 00 02 	movl   $0x2,0x203d0a(%rip)        # 6054dc <vlevel>
  4017cf:	00 00 00 
  4017d2:	3b 3d 0c 3d 20 00    	cmp    0x203d0c(%rip),%edi        # 6054e4 <cookie>
  4017d8:	75 1b                	jne    4017f5 <touch2+0x33>
  4017da:	bf 60 30 40 00       	mov    $0x403060,%edi
  4017df:	b8 00 00 00 00       	mov    $0x0,%eax
  4017e4:	e8 77 f4 ff ff       	callq  400c60 <printf@plt>
  4017e9:	bf 02 00 00 00       	mov    $0x2,%edi
  4017ee:	e8 e6 04 00 00       	callq  401cd9 <validate>
  4017f3:	eb 19                	jmp    40180e <touch2+0x4c>
  4017f5:	bf 88 30 40 00       	mov    $0x403088,%edi
  4017fa:	b8 00 00 00 00       	mov    $0x0,%eax
  4017ff:	e8 5c f4 ff ff       	callq  400c60 <printf@plt>
  401804:	bf 02 00 00 00       	mov    $0x2,%edi
  401809:	e8 7d 05 00 00       	callq  401d8b <fail>
  40180e:	bf 00 00 00 00       	mov    $0x0,%edi
  401813:	e8 a8 f5 ff ff       	callq  400dc0 <exit@plt>

0000000000401818 <hexmatch>:
  401818:	41 54                	push   %r12
  40181a:	55                   	push   %rbp
  40181b:	53                   	push   %rbx
  40181c:	48 83 ec 70          	sub    $0x70,%rsp
  401820:	41 89 fc             	mov    %edi,%r12d
  401823:	48 89 f5             	mov    %rsi,%rbp
  401826:	e8 f5 f4 ff ff       	callq  400d20 <random@plt>
  40182b:	48 89 c1             	mov    %rax,%rcx
  40182e:	48 ba 0b d7 a3 70 3d 	movabs $0xa3d70a3d70a3d70b,%rdx
  401835:	0a d7 a3 
  401838:	48 f7 ea             	imul   %rdx
  40183b:	48 8d 04 0a          	lea    (%rdx,%rcx,1),%rax
  40183f:	48 c1 f8 06          	sar    $0x6,%rax
  401843:	48 89 ce             	mov    %rcx,%rsi
  401846:	48 c1 fe 3f          	sar    $0x3f,%rsi
  40184a:	48 29 f0             	sub    %rsi,%rax
  40184d:	48 8d 04 80          	lea    (%rax,%rax,4),%rax
  401851:	48 8d 04 80          	lea    (%rax,%rax,4),%rax
  401855:	48 c1 e0 02          	shl    $0x2,%rax
  401859:	48 29 c1             	sub    %rax,%rcx
  40185c:	48 8d 1c 0c          	lea    (%rsp,%rcx,1),%rbx
  401860:	44 89 e2             	mov    %r12d,%edx
  401863:	be 5a 30 40 00       	mov    $0x40305a,%esi
  401868:	48 89 df             	mov    %rbx,%rdi
  40186b:	b8 00 00 00 00       	mov    $0x0,%eax
  401870:	e8 3b f5 ff ff       	callq  400db0 <sprintf@plt>
  401875:	ba 09 00 00 00       	mov    $0x9,%edx
  40187a:	48 89 de             	mov    %rbx,%rsi
  40187d:	48 89 ef             	mov    %rbp,%rdi
  401880:	e8 8b f3 ff ff       	callq  400c10 <strncmp@plt>
  401885:	85 c0                	test   %eax,%eax
  401887:	0f 94 c0             	sete   %al
  40188a:	0f b6 c0             	movzbl %al,%eax
  40188d:	48 83 c4 70          	add    $0x70,%rsp
  401891:	5b                   	pop    %rbx
  401892:	5d                   	pop    %rbp
  401893:	41 5c                	pop    %r12
  401895:	c3                   	retq   

0000000000401896 <touch3>:
  401896:	53                   	push   %rbx
  401897:	48 89 fb             	mov    %rdi,%rbx
  40189a:	c7 05 38 3c 20 00 03 	movl   $0x3,0x203c38(%rip)        # 6054dc <vlevel>
  4018a1:	00 00 00 
  4018a4:	48 89 fe             	mov    %rdi,%rsi
  4018a7:	8b 3d 37 3c 20 00    	mov    0x203c37(%rip),%edi        # 6054e4 <cookie>
  4018ad:	e8 66 ff ff ff       	callq  401818 <hexmatch>
  4018b2:	85 c0                	test   %eax,%eax
  4018b4:	74 1e                	je     4018d4 <touch3+0x3e>
  4018b6:	48 89 de             	mov    %rbx,%rsi
  4018b9:	bf b0 30 40 00       	mov    $0x4030b0,%edi
  4018be:	b8 00 00 00 00       	mov    $0x0,%eax
  4018c3:	e8 98 f3 ff ff       	callq  400c60 <printf@plt>
  4018c8:	bf 03 00 00 00       	mov    $0x3,%edi
  4018cd:	e8 07 04 00 00       	callq  401cd9 <validate>
  4018d2:	eb 1c                	jmp    4018f0 <touch3+0x5a>
  4018d4:	48 89 de             	mov    %rbx,%rsi
  4018d7:	bf d8 30 40 00       	mov    $0x4030d8,%edi
  4018dc:	b8 00 00 00 00       	mov    $0x0,%eax
  4018e1:	e8 7a f3 ff ff       	callq  400c60 <printf@plt>
  4018e6:	bf 03 00 00 00       	mov    $0x3,%edi
  4018eb:	e8 9b 04 00 00       	callq  401d8b <fail>
  4018f0:	bf 00 00 00 00       	mov    $0x0,%edi
  4018f5:	e8 c6 f4 ff ff       	callq  400dc0 <exit@plt>

00000000004018fa <test>:
  4018fa:	48 83 ec 08          	sub    $0x8,%rsp
  4018fe:	b8 00 00 00 00       	mov    $0x0,%eax
  401903:	e8 78 fe ff ff       	callq  401780 <getbuf>
  401908:	89 c6                	mov    %eax,%esi
  40190a:	bf 00 31 40 00       	mov    $0x403100,%edi
  40190f:	b8 00 00 00 00       	mov    $0x0,%eax
  401914:	e8 47 f3 ff ff       	callq  400c60 <printf@plt>
  401919:	48 83 c4 08          	add    $0x8,%rsp
  40191d:	c3                   	retq   

000000000040191e <start_farm>:
  40191e:	b8 01 00 00 00       	mov    $0x1,%eax
  401923:	c3                   	retq   

0000000000401924 <setval_234>:
  401924:	c7 07 18 90 90 c3    	movl   $0xc3909018,(%rdi)
  40192a:	c3                   	retq   

000000000040192b <setval_195>:
  40192b:	c7 07 58 91 c3 c2    	movl   $0xc2c39158,(%rdi)
  401931:	c3                   	retq   

0000000000401932 <addval_449>:
  401932:	8d 87 48 89 c7 c3    	lea    -0x3c3876b8(%rdi),%eax
  401938:	c3                   	retq   

0000000000401939 <setval_329>:
  401939:	c7 07 48 89 c7 c3    	movl   $0xc3c78948,(%rdi)
  40193f:	c3                   	retq   

0000000000401940 <addval_296>:
  401940:	8d 87 58 c3 aa 34    	lea    0x34aac358(%rdi),%eax
  401946:	c3                   	retq   

0000000000401947 <setval_359>:
  401947:	c7 07 48 89 c7 92    	movl   $0x92c78948,(%rdi)
  40194d:	c3                   	retq   

000000000040194e <setval_497>:
  40194e:	c7 07 58 90 90 c3    	movl   $0xc3909058,(%rdi)
  401954:	c3                   	retq   

0000000000401955 <addval_411>:
  401955:	8d 87 48 09 c7 c3    	lea    -0x3c38f6b8(%rdi),%eax
  40195b:	c3                   	retq   

000000000040195c <mid_farm>:
  40195c:	b8 01 00 00 00       	mov    $0x1,%eax
  401961:	c3                   	retq   

0000000000401962 <add_xy>:
  401962:	48 8d 04 37          	lea    (%rdi,%rsi,1),%rax
  401966:	c3                   	retq   

0000000000401967 <addval_337>:
  401967:	8d 87 48 89 e0 92    	lea    -0x6d1f76b8(%rdi),%eax
  40196d:	c3                   	retq   

000000000040196e <addval_374>:
  40196e:	8d 87 95 89 d6 94    	lea    -0x6b29766b(%rdi),%eax
  401974:	c3                   	retq   

0000000000401975 <setval_293>:
  401975:	c7 07 89 c1 20 d2    	movl   $0xd220c189,(%rdi)
  40197b:	c3                   	retq   

000000000040197c <getval_403>:
  40197c:	b8 89 ca 60 db       	mov    $0xdb60ca89,%eax
  401981:	c3                   	retq   

0000000000401982 <setval_131>:
  401982:	c7 07 48 89 e0 c3    	movl   $0xc3e08948,(%rdi)
  401988:	c3                   	retq   

0000000000401989 <addval_113>:
  401989:	8d 87 cc 89 c1 92    	lea    -0x6d3e7634(%rdi),%eax
  40198f:	c3                   	retq   

0000000000401990 <setval_198>:
  401990:	c7 07 89 d6 90 90    	movl   $0x9090d689,(%rdi)
  401996:	c3                   	retq   

0000000000401997 <getval_371>:
  401997:	b8 89 c1 18 db       	mov    $0xdb18c189,%eax
  40199c:	c3                   	retq   

000000000040199d <setval_274>:
  40199d:	c7 07 89 ca 08 c0    	movl   $0xc008ca89,(%rdi)
  4019a3:	c3                   	retq   

00000000004019a4 <addval_328>:
  4019a4:	8d 87 8d d6 c3 b0    	lea    -0x4f3c2973(%rdi),%eax
  4019aa:	c3                   	retq   

00000000004019ab <setval_476>:
  4019ab:	c7 07 48 89 e0 92    	movl   $0x92e08948,(%rdi)
  4019b1:	c3                   	retq   

00000000004019b2 <setval_381>:
  4019b2:	c7 07 89 ca 18 d2    	movl   $0xd218ca89,(%rdi)
  4019b8:	c3                   	retq   

00000000004019b9 <addval_143>:
  4019b9:	8d 87 89 d6 00 c0    	lea    -0x3fff2977(%rdi),%eax
  4019bf:	c3                   	retq   

00000000004019c0 <addval_254>:
  4019c0:	8d 87 48 89 e0 92    	lea    -0x6d1f76b8(%rdi),%eax
  4019c6:	c3                   	retq   

00000000004019c7 <getval_437>:
  4019c7:	b8 48 99 e0 90       	mov    $0x90e09948,%eax
  4019cc:	c3                   	retq   

00000000004019cd <getval_207>:
  4019cd:	b8 89 d6 84 c9       	mov    $0xc984d689,%eax
  4019d2:	c3                   	retq   

00000000004019d3 <getval_128>:
  4019d3:	b8 c9 ca 20 d2       	mov    $0xd220cac9,%eax
  4019d8:	c3                   	retq   

00000000004019d9 <getval_422>:
  4019d9:	b8 81 d6 90 90       	mov    $0x9090d681,%eax
  4019de:	c3                   	retq   

00000000004019df <setval_490>:
  4019df:	c7 07 89 c1 00 c9    	movl   $0xc900c189,(%rdi)
  4019e5:	c3                   	retq   

00000000004019e6 <getval_171>:
  4019e6:	b8 89 ca 30 d2       	mov    $0xd230ca89,%eax
  4019eb:	c3                   	retq   

00000000004019ec <getval_458>:
  4019ec:	b8 89 c1 00 db       	mov    $0xdb00c189,%eax
  4019f1:	c3                   	retq   

00000000004019f2 <addval_330>:
  4019f2:	8d 87 89 ca 90 90    	lea    -0x6f6f3577(%rdi),%eax
  4019f8:	c3                   	retq   

00000000004019f9 <setval_386>:
  4019f9:	c7 07 89 ca 18 d2    	movl   $0xd218ca89,(%rdi)
  4019ff:	c3                   	retq   

0000000000401a00 <setval_389>:
  401a00:	c7 07 81 ca 08 db    	movl   $0xdb08ca81,(%rdi)
  401a06:	c3                   	retq   

0000000000401a07 <addval_189>:
  401a07:	8d 87 48 c9 e0 c3    	lea    -0x3c1f36b8(%rdi),%eax
  401a0d:	c3                   	retq   

0000000000401a0e <setval_184>:
  401a0e:	c7 07 81 c1 84 db    	movl   $0xdb84c181,(%rdi)
  401a14:	c3                   	retq   

0000000000401a15 <setval_488>:
  401a15:	c7 07 89 d6 92 c3    	movl   $0xc392d689,(%rdi)
  401a1b:	c3                   	retq   

0000000000401a1c <addval_429>:
  401a1c:	8d 87 89 c1 20 db    	lea    -0x24df3e77(%rdi),%eax
  401a22:	c3                   	retq   

0000000000401a23 <setval_183>:
  401a23:	c7 07 4c 89 d6 94    	movl   $0x94d6894c,(%rdi)
  401a29:	c3                   	retq   

0000000000401a2a <getval_487>:
  401a2a:	b8 89 c1 28 d2       	mov    $0xd228c189,%eax
  401a2f:	c3                   	retq   

0000000000401a30 <setval_214>:
  401a30:	c7 07 48 89 e0 c3    	movl   $0xc3e08948,(%rdi)
  401a36:	c3                   	retq   

0000000000401a37 <addval_180>:
  401a37:	8d 87 c8 89 e0 90    	lea    -0x6f1f7638(%rdi),%eax
  401a3d:	c3                   	retq   

0000000000401a3e <end_farm>:
  401a3e:	b8 01 00 00 00       	mov    $0x1,%eax
  401a43:	c3                   	retq   
  401a44:	66 2e 0f 1f 84 00 00 	nopw   %cs:0x0(%rax,%rax,1)
  401a4b:	00 00 00 
  401a4e:	66 90                	xchg   %ax,%ax

0000000000401a50 <save_char>:
  401a50:	8b 05 ae 46 20 00    	mov    0x2046ae(%rip),%eax        # 606104 <gets_cnt>
  401a56:	3d ff 03 00 00       	cmp    $0x3ff,%eax
  401a5b:	7f 49                	jg     401aa6 <save_char+0x56>
  401a5d:	8d 14 40             	lea    (%rax,%rax,2),%edx
  401a60:	89 f9                	mov    %edi,%ecx
  401a62:	c0 e9 04             	shr    $0x4,%cl
  401a65:	83 e1 0f             	and    $0xf,%ecx
  401a68:	0f b6 b1 20 34 40 00 	movzbl 0x403420(%rcx),%esi
  401a6f:	48 63 ca             	movslq %edx,%rcx
  401a72:	40 88 b1 00 55 60 00 	mov    %sil,0x605500(%rcx)
  401a79:	8d 4a 01             	lea    0x1(%rdx),%ecx
  401a7c:	83 e7 0f             	and    $0xf,%edi
  401a7f:	0f b6 b7 20 34 40 00 	movzbl 0x403420(%rdi),%esi
  401a86:	48 63 c9             	movslq %ecx,%rcx
  401a89:	40 88 b1 00 55 60 00 	mov    %sil,0x605500(%rcx)
  401a90:	83 c2 02             	add    $0x2,%edx
  401a93:	48 63 d2             	movslq %edx,%rdx
  401a96:	c6 82 00 55 60 00 20 	movb   $0x20,0x605500(%rdx)
  401a9d:	83 c0 01             	add    $0x1,%eax
  401aa0:	89 05 5e 46 20 00    	mov    %eax,0x20465e(%rip)        # 606104 <gets_cnt>
  401aa6:	f3 c3                	repz retq 

0000000000401aa8 <save_term>:
  401aa8:	8b 05 56 46 20 00    	mov    0x204656(%rip),%eax        # 606104 <gets_cnt>
  401aae:	8d 04 40             	lea    (%rax,%rax,2),%eax
  401ab1:	48 98                	cltq   
  401ab3:	c6 80 00 55 60 00 00 	movb   $0x0,0x605500(%rax)
  401aba:	c3                   	retq   

0000000000401abb <check_fail>:
  401abb:	48 83 ec 08          	sub    $0x8,%rsp
  401abf:	0f be 35 42 46 20 00 	movsbl 0x204642(%rip),%esi        # 606108 <target_prefix>
  401ac6:	b9 00 55 60 00       	mov    $0x605500,%ecx
  401acb:	8b 15 07 3a 20 00    	mov    0x203a07(%rip),%edx        # 6054d8 <check_level>
  401ad1:	bf 23 31 40 00       	mov    $0x403123,%edi
  401ad6:	b8 00 00 00 00       	mov    $0x0,%eax
  401adb:	e8 80 f1 ff ff       	callq  400c60 <printf@plt>
  401ae0:	bf 01 00 00 00       	mov    $0x1,%edi
  401ae5:	e8 d6 f2 ff ff       	callq  400dc0 <exit@plt>

0000000000401aea <Gets>:
  401aea:	41 54                	push   %r12
  401aec:	55                   	push   %rbp
  401aed:	53                   	push   %rbx
  401aee:	49 89 fc             	mov    %rdi,%r12
  401af1:	c7 05 09 46 20 00 00 	movl   $0x0,0x204609(%rip)        # 606104 <gets_cnt>
  401af8:	00 00 00 
  401afb:	48 89 fb             	mov    %rdi,%rbx
  401afe:	eb 11                	jmp    401b11 <Gets+0x27>
  401b00:	48 8d 6b 01          	lea    0x1(%rbx),%rbp
  401b04:	88 03                	mov    %al,(%rbx)
  401b06:	0f b6 f8             	movzbl %al,%edi
  401b09:	e8 42 ff ff ff       	callq  401a50 <save_char>
  401b0e:	48 89 eb             	mov    %rbp,%rbx
  401b11:	48 8b 3d b8 39 20 00 	mov    0x2039b8(%rip),%rdi        # 6054d0 <infile>
  401b18:	e8 13 f2 ff ff       	callq  400d30 <_IO_getc@plt>
  401b1d:	83 f8 ff             	cmp    $0xffffffff,%eax
  401b20:	74 05                	je     401b27 <Gets+0x3d>
  401b22:	83 f8 0a             	cmp    $0xa,%eax
  401b25:	75 d9                	jne    401b00 <Gets+0x16>
  401b27:	c6 03 00             	movb   $0x0,(%rbx)
  401b2a:	b8 00 00 00 00       	mov    $0x0,%eax
  401b2f:	e8 74 ff ff ff       	callq  401aa8 <save_term>
  401b34:	4c 89 e0             	mov    %r12,%rax
  401b37:	5b                   	pop    %rbx
  401b38:	5d                   	pop    %rbp
  401b39:	41 5c                	pop    %r12
  401b3b:	c3                   	retq   

0000000000401b3c <notify_server>:
  401b3c:	83 3d a5 39 20 00 00 	cmpl   $0x0,0x2039a5(%rip)        # 6054e8 <is_checker>
  401b43:	0f 85 8e 01 00 00    	jne    401cd7 <notify_server+0x19b>
  401b49:	53                   	push   %rbx
  401b4a:	48 81 ec 10 40 00 00 	sub    $0x4010,%rsp
  401b51:	89 fb                	mov    %edi,%ebx
  401b53:	8b 05 ab 45 20 00    	mov    0x2045ab(%rip),%eax        # 606104 <gets_cnt>
  401b59:	83 c0 64             	add    $0x64,%eax
  401b5c:	3d 00 20 00 00       	cmp    $0x2000,%eax
  401b61:	7e 19                	jle    401b7c <notify_server+0x40>
  401b63:	bf 58 32 40 00       	mov    $0x403258,%edi
  401b68:	b8 00 00 00 00       	mov    $0x0,%eax
  401b6d:	e8 ee f0 ff ff       	callq  400c60 <printf@plt>
  401b72:	bf 01 00 00 00       	mov    $0x1,%edi
  401b77:	e8 44 f2 ff ff       	callq  400dc0 <exit@plt>
  401b7c:	44 0f be 0d 84 45 20 	movsbl 0x204584(%rip),%r9d        # 606108 <target_prefix>
  401b83:	00 
  401b84:	83 3d fd 38 20 00 00 	cmpl   $0x0,0x2038fd(%rip)        # 605488 <notify>
  401b8b:	74 09                	je     401b96 <notify_server+0x5a>
  401b8d:	44 8b 05 4c 39 20 00 	mov    0x20394c(%rip),%r8d        # 6054e0 <authkey>
  401b94:	eb 06                	jmp    401b9c <notify_server+0x60>
  401b96:	41 b8 ff ff ff ff    	mov    $0xffffffff,%r8d
  401b9c:	85 db                	test   %ebx,%ebx
  401b9e:	74 07                	je     401ba7 <notify_server+0x6b>
  401ba0:	b9 39 31 40 00       	mov    $0x403139,%ecx
  401ba5:	eb 05                	jmp    401bac <notify_server+0x70>
  401ba7:	b9 3e 31 40 00       	mov    $0x40313e,%ecx
  401bac:	48 c7 44 24 08 00 55 	movq   $0x605500,0x8(%rsp)
  401bb3:	60 00 
  401bb5:	89 34 24             	mov    %esi,(%rsp)
  401bb8:	8b 15 8a 35 20 00    	mov    0x20358a(%rip),%edx        # 605148 <target_id>
  401bbe:	be 43 31 40 00       	mov    $0x403143,%esi
  401bc3:	48 8d bc 24 10 20 00 	lea    0x2010(%rsp),%rdi
  401bca:	00 
  401bcb:	b8 00 00 00 00       	mov    $0x0,%eax
  401bd0:	e8 db f1 ff ff       	callq  400db0 <sprintf@plt>
  401bd5:	83 3d ac 38 20 00 00 	cmpl   $0x0,0x2038ac(%rip)        # 605488 <notify>
  401bdc:	74 78                	je     401c56 <notify_server+0x11a>
  401bde:	85 db                	test   %ebx,%ebx
  401be0:	74 68                	je     401c4a <notify_server+0x10e>
  401be2:	4c 8d 4c 24 10       	lea    0x10(%rsp),%r9
  401be7:	41 b8 00 00 00 00    	mov    $0x0,%r8d
  401bed:	48 8d 8c 24 10 20 00 	lea    0x2010(%rsp),%rcx
  401bf4:	00 
  401bf5:	48 8b 15 54 35 20 00 	mov    0x203554(%rip),%rdx        # 605150 <lab>
  401bfc:	48 8b 35 55 35 20 00 	mov    0x203555(%rip),%rsi        # 605158 <course>
  401c03:	48 8b 3d 36 35 20 00 	mov    0x203536(%rip),%rdi        # 605140 <user_id>
  401c0a:	e8 94 0f 00 00       	callq  402ba3 <driver_post>
  401c0f:	85 c0                	test   %eax,%eax
  401c11:	79 1e                	jns    401c31 <notify_server+0xf5>
  401c13:	48 8d 74 24 10       	lea    0x10(%rsp),%rsi
  401c18:	bf 5f 31 40 00       	mov    $0x40315f,%edi
  401c1d:	b8 00 00 00 00       	mov    $0x0,%eax
  401c22:	e8 39 f0 ff ff       	callq  400c60 <printf@plt>
  401c27:	bf 01 00 00 00       	mov    $0x1,%edi
  401c2c:	e8 8f f1 ff ff       	callq  400dc0 <exit@plt>
  401c31:	bf 88 32 40 00       	mov    $0x403288,%edi
  401c36:	e8 f5 ef ff ff       	callq  400c30 <puts@plt>
  401c3b:	bf 6b 31 40 00       	mov    $0x40316b,%edi
  401c40:	e8 eb ef ff ff       	callq  400c30 <puts@plt>
  401c45:	e9 85 00 00 00       	jmpq   401ccf <notify_server+0x193>
  401c4a:	bf 75 31 40 00       	mov    $0x403175,%edi
  401c4f:	e8 dc ef ff ff       	callq  400c30 <puts@plt>
  401c54:	eb 79                	jmp    401ccf <notify_server+0x193>
  401c56:	85 db                	test   %ebx,%ebx
  401c58:	74 08                	je     401c62 <notify_server+0x126>
  401c5a:	be 39 31 40 00       	mov    $0x403139,%esi
  401c5f:	90                   	nop
  401c60:	eb 05                	jmp    401c67 <notify_server+0x12b>
  401c62:	be 3e 31 40 00       	mov    $0x40313e,%esi
  401c67:	bf c0 32 40 00       	mov    $0x4032c0,%edi
  401c6c:	b8 00 00 00 00       	mov    $0x0,%eax
  401c71:	e8 ea ef ff ff       	callq  400c60 <printf@plt>
  401c76:	48 8b 35 c3 34 20 00 	mov    0x2034c3(%rip),%rsi        # 605140 <user_id>
  401c7d:	bf 7c 31 40 00       	mov    $0x40317c,%edi
  401c82:	b8 00 00 00 00       	mov    $0x0,%eax
  401c87:	e8 d4 ef ff ff       	callq  400c60 <printf@plt>
  401c8c:	48 8b 35 c5 34 20 00 	mov    0x2034c5(%rip),%rsi        # 605158 <course>
  401c93:	bf 89 31 40 00       	mov    $0x403189,%edi
  401c98:	b8 00 00 00 00       	mov    $0x0,%eax
  401c9d:	e8 be ef ff ff       	callq  400c60 <printf@plt>
  401ca2:	48 8b 35 a7 34 20 00 	mov    0x2034a7(%rip),%rsi        # 605150 <lab>
  401ca9:	bf 95 31 40 00       	mov    $0x403195,%edi
  401cae:	b8 00 00 00 00       	mov    $0x0,%eax
  401cb3:	e8 a8 ef ff ff       	callq  400c60 <printf@plt>
  401cb8:	48 8d b4 24 10 20 00 	lea    0x2010(%rsp),%rsi
  401cbf:	00 
  401cc0:	bf 9e 31 40 00       	mov    $0x40319e,%edi
  401cc5:	b8 00 00 00 00       	mov    $0x0,%eax
  401cca:	e8 91 ef ff ff       	callq  400c60 <printf@plt>
  401ccf:	48 81 c4 10 40 00 00 	add    $0x4010,%rsp
  401cd6:	5b                   	pop    %rbx
  401cd7:	f3 c3                	repz retq 

0000000000401cd9 <validate>:
  401cd9:	53                   	push   %rbx
  401cda:	89 fb                	mov    %edi,%ebx
  401cdc:	83 3d 05 38 20 00 00 	cmpl   $0x0,0x203805(%rip)        # 6054e8 <is_checker>
  401ce3:	74 60                	je     401d45 <validate+0x6c>
  401ce5:	39 3d f1 37 20 00    	cmp    %edi,0x2037f1(%rip)        # 6054dc <vlevel>
  401ceb:	74 14                	je     401d01 <validate+0x28>
  401ced:	bf aa 31 40 00       	mov    $0x4031aa,%edi
  401cf2:	e8 39 ef ff ff       	callq  400c30 <puts@plt>
  401cf7:	b8 00 00 00 00       	mov    $0x0,%eax
  401cfc:	e8 ba fd ff ff       	callq  401abb <check_fail>
  401d01:	8b 35 d1 37 20 00    	mov    0x2037d1(%rip),%esi        # 6054d8 <check_level>
  401d07:	39 fe                	cmp    %edi,%esi
  401d09:	74 1b                	je     401d26 <validate+0x4d>
  401d0b:	89 fa                	mov    %edi,%edx
  401d0d:	bf e8 32 40 00       	mov    $0x4032e8,%edi
  401d12:	b8 00 00 00 00       	mov    $0x0,%eax
  401d17:	e8 44 ef ff ff       	callq  400c60 <printf@plt>
  401d1c:	b8 00 00 00 00       	mov    $0x0,%eax
  401d21:	e8 95 fd ff ff       	callq  401abb <check_fail>
  401d26:	0f be 35 db 43 20 00 	movsbl 0x2043db(%rip),%esi        # 606108 <target_prefix>
  401d2d:	b9 00 55 60 00       	mov    $0x605500,%ecx
  401d32:	89 fa                	mov    %edi,%edx
  401d34:	bf c8 31 40 00       	mov    $0x4031c8,%edi
  401d39:	b8 00 00 00 00       	mov    $0x0,%eax
  401d3e:	e8 1d ef ff ff       	callq  400c60 <printf@plt>
  401d43:	eb 44                	jmp    401d89 <validate+0xb0>
  401d45:	39 3d 91 37 20 00    	cmp    %edi,0x203791(%rip)        # 6054dc <vlevel>
  401d4b:	74 18                	je     401d65 <validate+0x8c>
  401d4d:	bf aa 31 40 00       	mov    $0x4031aa,%edi
  401d52:	e8 d9 ee ff ff       	callq  400c30 <puts@plt>
  401d57:	89 de                	mov    %ebx,%esi
  401d59:	bf 00 00 00 00       	mov    $0x0,%edi
  401d5e:	e8 d9 fd ff ff       	callq  401b3c <notify_server>
  401d63:	eb 24                	jmp    401d89 <validate+0xb0>
  401d65:	0f be 15 9c 43 20 00 	movsbl 0x20439c(%rip),%edx        # 606108 <target_prefix>
  401d6c:	89 fe                	mov    %edi,%esi
  401d6e:	bf 10 33 40 00       	mov    $0x403310,%edi
  401d73:	b8 00 00 00 00       	mov    $0x0,%eax
  401d78:	e8 e3 ee ff ff       	callq  400c60 <printf@plt>
  401d7d:	89 de                	mov    %ebx,%esi
  401d7f:	bf 01 00 00 00       	mov    $0x1,%edi
  401d84:	e8 b3 fd ff ff       	callq  401b3c <notify_server>
  401d89:	5b                   	pop    %rbx
  401d8a:	c3                   	retq   

0000000000401d8b <fail>:
  401d8b:	48 83 ec 08          	sub    $0x8,%rsp
  401d8f:	83 3d 52 37 20 00 00 	cmpl   $0x0,0x203752(%rip)        # 6054e8 <is_checker>
  401d96:	74 0a                	je     401da2 <fail+0x17>
  401d98:	b8 00 00 00 00       	mov    $0x0,%eax
  401d9d:	e8 19 fd ff ff       	callq  401abb <check_fail>
  401da2:	89 fe                	mov    %edi,%esi
  401da4:	bf 00 00 00 00       	mov    $0x0,%edi
  401da9:	e8 8e fd ff ff       	callq  401b3c <notify_server>
  401dae:	48 83 c4 08          	add    $0x8,%rsp
  401db2:	c3                   	retq   

0000000000401db3 <bushandler>:
  401db3:	48 83 ec 08          	sub    $0x8,%rsp
  401db7:	83 3d 2a 37 20 00 00 	cmpl   $0x0,0x20372a(%rip)        # 6054e8 <is_checker>
  401dbe:	74 14                	je     401dd4 <bushandler+0x21>
  401dc0:	bf dd 31 40 00       	mov    $0x4031dd,%edi
  401dc5:	e8 66 ee ff ff       	callq  400c30 <puts@plt>
  401dca:	b8 00 00 00 00       	mov    $0x0,%eax
  401dcf:	e8 e7 fc ff ff       	callq  401abb <check_fail>
  401dd4:	bf 48 33 40 00       	mov    $0x403348,%edi
  401dd9:	e8 52 ee ff ff       	callq  400c30 <puts@plt>
  401dde:	bf e7 31 40 00       	mov    $0x4031e7,%edi
  401de3:	e8 48 ee ff ff       	callq  400c30 <puts@plt>
  401de8:	be 00 00 00 00       	mov    $0x0,%esi
  401ded:	bf 00 00 00 00       	mov    $0x0,%edi
  401df2:	e8 45 fd ff ff       	callq  401b3c <notify_server>
  401df7:	bf 01 00 00 00       	mov    $0x1,%edi
  401dfc:	e8 bf ef ff ff       	callq  400dc0 <exit@plt>

0000000000401e01 <seghandler>:
  401e01:	48 83 ec 08          	sub    $0x8,%rsp
  401e05:	83 3d dc 36 20 00 00 	cmpl   $0x0,0x2036dc(%rip)        # 6054e8 <is_checker>
  401e0c:	74 14                	je     401e22 <seghandler+0x21>
  401e0e:	bf fd 31 40 00       	mov    $0x4031fd,%edi
  401e13:	e8 18 ee ff ff       	callq  400c30 <puts@plt>
  401e18:	b8 00 00 00 00       	mov    $0x0,%eax
  401e1d:	e8 99 fc ff ff       	callq  401abb <check_fail>
  401e22:	bf 68 33 40 00       	mov    $0x403368,%edi
  401e27:	e8 04 ee ff ff       	callq  400c30 <puts@plt>
  401e2c:	bf e7 31 40 00       	mov    $0x4031e7,%edi
  401e31:	e8 fa ed ff ff       	callq  400c30 <puts@plt>
  401e36:	be 00 00 00 00       	mov    $0x0,%esi
  401e3b:	bf 00 00 00 00       	mov    $0x0,%edi
  401e40:	e8 f7 fc ff ff       	callq  401b3c <notify_server>
  401e45:	bf 01 00 00 00       	mov    $0x1,%edi
  401e4a:	e8 71 ef ff ff       	callq  400dc0 <exit@plt>

0000000000401e4f <illegalhandler>:
  401e4f:	48 83 ec 08          	sub    $0x8,%rsp
  401e53:	83 3d 8e 36 20 00 00 	cmpl   $0x0,0x20368e(%rip)        # 6054e8 <is_checker>
  401e5a:	74 14                	je     401e70 <illegalhandler+0x21>
  401e5c:	bf 10 32 40 00       	mov    $0x403210,%edi
  401e61:	e8 ca ed ff ff       	callq  400c30 <puts@plt>
  401e66:	b8 00 00 00 00       	mov    $0x0,%eax
  401e6b:	e8 4b fc ff ff       	callq  401abb <check_fail>
  401e70:	bf 90 33 40 00       	mov    $0x403390,%edi
  401e75:	e8 b6 ed ff ff       	callq  400c30 <puts@plt>
  401e7a:	bf e7 31 40 00       	mov    $0x4031e7,%edi
  401e7f:	e8 ac ed ff ff       	callq  400c30 <puts@plt>
  401e84:	be 00 00 00 00       	mov    $0x0,%esi
  401e89:	bf 00 00 00 00       	mov    $0x0,%edi
  401e8e:	e8 a9 fc ff ff       	callq  401b3c <notify_server>
  401e93:	bf 01 00 00 00       	mov    $0x1,%edi
  401e98:	e8 23 ef ff ff       	callq  400dc0 <exit@plt>

0000000000401e9d <sigalrmhandler>:
  401e9d:	48 83 ec 08          	sub    $0x8,%rsp
  401ea1:	83 3d 40 36 20 00 00 	cmpl   $0x0,0x203640(%rip)        # 6054e8 <is_checker>
  401ea8:	74 14                	je     401ebe <sigalrmhandler+0x21>
  401eaa:	bf 24 32 40 00       	mov    $0x403224,%edi
  401eaf:	e8 7c ed ff ff       	callq  400c30 <puts@plt>
  401eb4:	b8 00 00 00 00       	mov    $0x0,%eax
  401eb9:	e8 fd fb ff ff       	callq  401abb <check_fail>
  401ebe:	be 05 00 00 00       	mov    $0x5,%esi
  401ec3:	bf c0 33 40 00       	mov    $0x4033c0,%edi
  401ec8:	b8 00 00 00 00       	mov    $0x0,%eax
  401ecd:	e8 8e ed ff ff       	callq  400c60 <printf@plt>
  401ed2:	be 00 00 00 00       	mov    $0x0,%esi
  401ed7:	bf 00 00 00 00       	mov    $0x0,%edi
  401edc:	e8 5b fc ff ff       	callq  401b3c <notify_server>
  401ee1:	bf 01 00 00 00       	mov    $0x1,%edi
  401ee6:	e8 d5 ee ff ff       	callq  400dc0 <exit@plt>

0000000000401eeb <launch>:
  401eeb:	55                   	push   %rbp
  401eec:	48 89 e5             	mov    %rsp,%rbp
  401eef:	48 89 fa             	mov    %rdi,%rdx
  401ef2:	48 8d 47 1e          	lea    0x1e(%rdi),%rax
  401ef6:	48 83 e0 f0          	and    $0xfffffffffffffff0,%rax
  401efa:	48 29 c4             	sub    %rax,%rsp
  401efd:	48 8d 7c 24 0f       	lea    0xf(%rsp),%rdi
  401f02:	48 83 e7 f0          	and    $0xfffffffffffffff0,%rdi
  401f06:	be f4 00 00 00       	mov    $0xf4,%esi
  401f0b:	e8 60 ed ff ff       	callq  400c70 <memset@plt>
  401f10:	48 8b 05 89 35 20 00 	mov    0x203589(%rip),%rax        # 6054a0 <stdin@@GLIBC_2.2.5>
  401f17:	48 39 05 b2 35 20 00 	cmp    %rax,0x2035b2(%rip)        # 6054d0 <infile>
  401f1e:	75 0f                	jne    401f2f <launch+0x44>
  401f20:	bf 2c 32 40 00       	mov    $0x40322c,%edi
  401f25:	b8 00 00 00 00       	mov    $0x0,%eax
  401f2a:	e8 31 ed ff ff       	callq  400c60 <printf@plt>
  401f2f:	c7 05 a3 35 20 00 00 	movl   $0x0,0x2035a3(%rip)        # 6054dc <vlevel>
  401f36:	00 00 00 
  401f39:	b8 00 00 00 00       	mov    $0x0,%eax
  401f3e:	e8 b7 f9 ff ff       	callq  4018fa <test>
  401f43:	83 3d 9e 35 20 00 00 	cmpl   $0x0,0x20359e(%rip)        # 6054e8 <is_checker>
  401f4a:	74 14                	je     401f60 <launch+0x75>
  401f4c:	bf 39 32 40 00       	mov    $0x403239,%edi
  401f51:	e8 da ec ff ff       	callq  400c30 <puts@plt>
  401f56:	b8 00 00 00 00       	mov    $0x0,%eax
  401f5b:	e8 5b fb ff ff       	callq  401abb <check_fail>
  401f60:	bf 44 32 40 00       	mov    $0x403244,%edi
  401f65:	e8 c6 ec ff ff       	callq  400c30 <puts@plt>
  401f6a:	c9                   	leaveq 
  401f6b:	c3                   	retq   

0000000000401f6c <stable_launch>:
  401f6c:	53                   	push   %rbx
  401f6d:	48 89 3d 54 35 20 00 	mov    %rdi,0x203554(%rip)        # 6054c8 <global_offset>
  401f74:	41 b9 00 00 00 00    	mov    $0x0,%r9d
  401f7a:	41 b8 00 00 00 00    	mov    $0x0,%r8d
  401f80:	b9 32 01 00 00       	mov    $0x132,%ecx
  401f85:	ba 07 00 00 00       	mov    $0x7,%edx
  401f8a:	be 00 00 10 00       	mov    $0x100000,%esi
  401f8f:	bf 00 60 58 55       	mov    $0x55586000,%edi
  401f94:	e8 b7 ec ff ff       	callq  400c50 <mmap@plt>
  401f99:	48 89 c3             	mov    %rax,%rbx
  401f9c:	48 3d 00 60 58 55    	cmp    $0x55586000,%rax
  401fa2:	74 32                	je     401fd6 <stable_launch+0x6a>
  401fa4:	be 00 00 10 00       	mov    $0x100000,%esi
  401fa9:	48 89 c7             	mov    %rax,%rdi
  401fac:	e8 9f ed ff ff       	callq  400d50 <munmap@plt>
  401fb1:	ba 00 60 58 55       	mov    $0x55586000,%edx
  401fb6:	be f8 33 40 00       	mov    $0x4033f8,%esi
  401fbb:	48 8b 3d ee 34 20 00 	mov    0x2034ee(%rip),%rdi        # 6054b0 <stderr@@GLIBC_2.2.5>
  401fc2:	b8 00 00 00 00       	mov    $0x0,%eax
  401fc7:	e8 14 ed ff ff       	callq  400ce0 <fprintf@plt>
  401fcc:	bf 01 00 00 00       	mov    $0x1,%edi
  401fd1:	e8 ea ed ff ff       	callq  400dc0 <exit@plt>
  401fd6:	48 8d 90 f8 ff 0f 00 	lea    0xffff8(%rax),%rdx
  401fdd:	48 89 15 2c 41 20 00 	mov    %rdx,0x20412c(%rip)        # 606110 <stack_top>
  401fe4:	48 89 e0             	mov    %rsp,%rax
  401fe7:	48 89 d4             	mov    %rdx,%rsp
  401fea:	48 89 c2             	mov    %rax,%rdx
  401fed:	48 89 15 cc 34 20 00 	mov    %rdx,0x2034cc(%rip)        # 6054c0 <global_save_stack>
  401ff4:	48 8b 3d cd 34 20 00 	mov    0x2034cd(%rip),%rdi        # 6054c8 <global_offset>
  401ffb:	e8 eb fe ff ff       	callq  401eeb <launch>
  402000:	48 8b 05 b9 34 20 00 	mov    0x2034b9(%rip),%rax        # 6054c0 <global_save_stack>
  402007:	48 89 c4             	mov    %rax,%rsp
  40200a:	be 00 00 10 00       	mov    $0x100000,%esi
  40200f:	48 89 df             	mov    %rbx,%rdi
  402012:	e8 39 ed ff ff       	callq  400d50 <munmap@plt>
  402017:	5b                   	pop    %rbx
  402018:	c3                   	retq   
  402019:	0f 1f 80 00 00 00 00 	nopl   0x0(%rax)

0000000000402020 <rio_readinitb>:
  402020:	89 37                	mov    %esi,(%rdi)
  402022:	c7 47 04 00 00 00 00 	movl   $0x0,0x4(%rdi)
  402029:	48 8d 47 10          	lea    0x10(%rdi),%rax
  40202d:	48 89 47 08          	mov    %rax,0x8(%rdi)
  402031:	c3                   	retq   

0000000000402032 <sigalrm_handler>:
  402032:	48 83 ec 08          	sub    $0x8,%rsp
  402036:	ba 00 00 00 00       	mov    $0x0,%edx
  40203b:	be 30 34 40 00       	mov    $0x403430,%esi
  402040:	48 8b 3d 69 34 20 00 	mov    0x203469(%rip),%rdi        # 6054b0 <stderr@@GLIBC_2.2.5>
  402047:	b8 00 00 00 00       	mov    $0x0,%eax
  40204c:	e8 8f ec ff ff       	callq  400ce0 <fprintf@plt>
  402051:	bf 01 00 00 00       	mov    $0x1,%edi
  402056:	e8 65 ed ff ff       	callq  400dc0 <exit@plt>

000000000040205b <urlencode>:
  40205b:	41 54                	push   %r12
  40205d:	55                   	push   %rbp
  40205e:	53                   	push   %rbx
  40205f:	48 83 ec 10          	sub    $0x10,%rsp
  402063:	48 89 fb             	mov    %rdi,%rbx
  402066:	48 89 f5             	mov    %rsi,%rbp
  402069:	b8 00 00 00 00       	mov    $0x0,%eax
  40206e:	48 c7 c1 ff ff ff ff 	mov    $0xffffffffffffffff,%rcx
  402075:	f2 ae                	repnz scas %es:(%rdi),%al
  402077:	48 f7 d1             	not    %rcx
  40207a:	8d 41 ff             	lea    -0x1(%rcx),%eax
  40207d:	e9 93 00 00 00       	jmpq   402115 <urlencode+0xba>
  402082:	0f b6 13             	movzbl (%rbx),%edx
  402085:	80 fa 2a             	cmp    $0x2a,%dl
  402088:	0f 94 c1             	sete   %cl
  40208b:	80 fa 2d             	cmp    $0x2d,%dl
  40208e:	0f 94 c0             	sete   %al
  402091:	08 c1                	or     %al,%cl
  402093:	75 1f                	jne    4020b4 <urlencode+0x59>
  402095:	80 fa 2e             	cmp    $0x2e,%dl
  402098:	74 1a                	je     4020b4 <urlencode+0x59>
  40209a:	80 fa 5f             	cmp    $0x5f,%dl
  40209d:	74 15                	je     4020b4 <urlencode+0x59>
  40209f:	8d 42 d0             	lea    -0x30(%rdx),%eax
  4020a2:	3c 09                	cmp    $0x9,%al
  4020a4:	76 0e                	jbe    4020b4 <urlencode+0x59>
  4020a6:	8d 42 bf             	lea    -0x41(%rdx),%eax
  4020a9:	3c 19                	cmp    $0x19,%al
  4020ab:	76 07                	jbe    4020b4 <urlencode+0x59>
  4020ad:	8d 42 9f             	lea    -0x61(%rdx),%eax
  4020b0:	3c 19                	cmp    $0x19,%al
  4020b2:	77 09                	ja     4020bd <urlencode+0x62>
  4020b4:	88 55 00             	mov    %dl,0x0(%rbp)
  4020b7:	48 8d 6d 01          	lea    0x1(%rbp),%rbp
  4020bb:	eb 51                	jmp    40210e <urlencode+0xb3>
  4020bd:	80 fa 20             	cmp    $0x20,%dl
  4020c0:	75 0a                	jne    4020cc <urlencode+0x71>
  4020c2:	c6 45 00 2b          	movb   $0x2b,0x0(%rbp)
  4020c6:	48 8d 6d 01          	lea    0x1(%rbp),%rbp
  4020ca:	eb 42                	jmp    40210e <urlencode+0xb3>
  4020cc:	8d 42 e0             	lea    -0x20(%rdx),%eax
  4020cf:	3c 5f                	cmp    $0x5f,%al
  4020d1:	0f 96 c1             	setbe  %cl
  4020d4:	80 fa 09             	cmp    $0x9,%dl
  4020d7:	0f 94 c0             	sete   %al
  4020da:	08 c1                	or     %al,%cl
  4020dc:	74 45                	je     402123 <urlencode+0xc8>
  4020de:	0f b6 d2             	movzbl %dl,%edx
  4020e1:	be c8 34 40 00       	mov    $0x4034c8,%esi
  4020e6:	48 89 e7             	mov    %rsp,%rdi
  4020e9:	b8 00 00 00 00       	mov    $0x0,%eax
  4020ee:	e8 bd ec ff ff       	callq  400db0 <sprintf@plt>
  4020f3:	0f b6 04 24          	movzbl (%rsp),%eax
  4020f7:	88 45 00             	mov    %al,0x0(%rbp)
  4020fa:	0f b6 44 24 01       	movzbl 0x1(%rsp),%eax
  4020ff:	88 45 01             	mov    %al,0x1(%rbp)
  402102:	0f b6 44 24 02       	movzbl 0x2(%rsp),%eax
  402107:	88 45 02             	mov    %al,0x2(%rbp)
  40210a:	48 8d 6d 03          	lea    0x3(%rbp),%rbp
  40210e:	48 83 c3 01          	add    $0x1,%rbx
  402112:	44 89 e0             	mov    %r12d,%eax
  402115:	44 8d 60 ff          	lea    -0x1(%rax),%r12d
  402119:	85 c0                	test   %eax,%eax
  40211b:	0f 85 61 ff ff ff    	jne    402082 <urlencode+0x27>
  402121:	eb 05                	jmp    402128 <urlencode+0xcd>
  402123:	b8 ff ff ff ff       	mov    $0xffffffff,%eax
  402128:	48 83 c4 10          	add    $0x10,%rsp
  40212c:	5b                   	pop    %rbx
  40212d:	5d                   	pop    %rbp
  40212e:	41 5c                	pop    %r12
  402130:	c3                   	retq   

0000000000402131 <rio_writen>:
  402131:	41 55                	push   %r13
  402133:	41 54                	push   %r12
  402135:	55                   	push   %rbp
  402136:	53                   	push   %rbx
  402137:	48 83 ec 08          	sub    $0x8,%rsp
  40213b:	41 89 fc             	mov    %edi,%r12d
  40213e:	48 89 f5             	mov    %rsi,%rbp
  402141:	49 89 d5             	mov    %rdx,%r13
  402144:	48 89 d3             	mov    %rdx,%rbx
  402147:	eb 28                	jmp    402171 <rio_writen+0x40>
  402149:	48 89 da             	mov    %rbx,%rdx
  40214c:	48 89 ee             	mov    %rbp,%rsi
  40214f:	44 89 e7             	mov    %r12d,%edi
  402152:	e8 e9 ea ff ff       	callq  400c40 <write@plt>
  402157:	48 85 c0             	test   %rax,%rax
  40215a:	7f 0f                	jg     40216b <rio_writen+0x3a>
  40215c:	e8 8f ea ff ff       	callq  400bf0 <__errno_location@plt>
  402161:	83 38 04             	cmpl   $0x4,(%rax)
  402164:	75 15                	jne    40217b <rio_writen+0x4a>
  402166:	b8 00 00 00 00       	mov    $0x0,%eax
  40216b:	48 29 c3             	sub    %rax,%rbx
  40216e:	48 01 c5             	add    %rax,%rbp
  402171:	48 85 db             	test   %rbx,%rbx
  402174:	75 d3                	jne    402149 <rio_writen+0x18>
  402176:	4c 89 e8             	mov    %r13,%rax
  402179:	eb 07                	jmp    402182 <rio_writen+0x51>
  40217b:	48 c7 c0 ff ff ff ff 	mov    $0xffffffffffffffff,%rax
  402182:	48 83 c4 08          	add    $0x8,%rsp
  402186:	5b                   	pop    %rbx
  402187:	5d                   	pop    %rbp
  402188:	41 5c                	pop    %r12
  40218a:	41 5d                	pop    %r13
  40218c:	c3                   	retq   

000000000040218d <rio_read>:
  40218d:	41 56                	push   %r14
  40218f:	41 55                	push   %r13
  402191:	41 54                	push   %r12
  402193:	55                   	push   %rbp
  402194:	53                   	push   %rbx
  402195:	48 89 fb             	mov    %rdi,%rbx
  402198:	49 89 f6             	mov    %rsi,%r14
  40219b:	49 89 d5             	mov    %rdx,%r13
  40219e:	4c 8d 67 10          	lea    0x10(%rdi),%r12
  4021a2:	eb 2a                	jmp    4021ce <rio_read+0x41>
  4021a4:	ba 00 20 00 00       	mov    $0x2000,%edx
  4021a9:	4c 89 e6             	mov    %r12,%rsi
  4021ac:	8b 3b                	mov    (%rbx),%edi
  4021ae:	e8 ed ea ff ff       	callq  400ca0 <read@plt>
  4021b3:	89 43 04             	mov    %eax,0x4(%rbx)
  4021b6:	85 c0                	test   %eax,%eax
  4021b8:	79 0c                	jns    4021c6 <rio_read+0x39>
  4021ba:	e8 31 ea ff ff       	callq  400bf0 <__errno_location@plt>
  4021bf:	83 38 04             	cmpl   $0x4,(%rax)
  4021c2:	74 0a                	je     4021ce <rio_read+0x41>
  4021c4:	eb 37                	jmp    4021fd <rio_read+0x70>
  4021c6:	85 c0                	test   %eax,%eax
  4021c8:	74 3c                	je     402206 <rio_read+0x79>
  4021ca:	4c 89 63 08          	mov    %r12,0x8(%rbx)
  4021ce:	8b 6b 04             	mov    0x4(%rbx),%ebp
  4021d1:	85 ed                	test   %ebp,%ebp
  4021d3:	7e cf                	jle    4021a4 <rio_read+0x17>
  4021d5:	89 e8                	mov    %ebp,%eax
  4021d7:	4c 39 e8             	cmp    %r13,%rax
  4021da:	72 03                	jb     4021df <rio_read+0x52>
  4021dc:	44 89 ed             	mov    %r13d,%ebp
  4021df:	4c 63 e5             	movslq %ebp,%r12
  4021e2:	48 8b 73 08          	mov    0x8(%rbx),%rsi
  4021e6:	4c 89 e2             	mov    %r12,%rdx
  4021e9:	4c 89 f7             	mov    %r14,%rdi
  4021ec:	e8 0f eb ff ff       	callq  400d00 <memcpy@plt>
  4021f1:	4c 01 63 08          	add    %r12,0x8(%rbx)
  4021f5:	29 6b 04             	sub    %ebp,0x4(%rbx)
  4021f8:	4c 89 e0             	mov    %r12,%rax
  4021fb:	eb 0e                	jmp    40220b <rio_read+0x7e>
  4021fd:	48 c7 c0 ff ff ff ff 	mov    $0xffffffffffffffff,%rax
  402204:	eb 05                	jmp    40220b <rio_read+0x7e>
  402206:	b8 00 00 00 00       	mov    $0x0,%eax
  40220b:	5b                   	pop    %rbx
  40220c:	5d                   	pop    %rbp
  40220d:	41 5c                	pop    %r12
  40220f:	41 5d                	pop    %r13
  402211:	41 5e                	pop    %r14
  402213:	c3                   	retq   

0000000000402214 <rio_readlineb>:
  402214:	41 55                	push   %r13
  402216:	41 54                	push   %r12
  402218:	55                   	push   %rbp
  402219:	53                   	push   %rbx
  40221a:	48 83 ec 18          	sub    $0x18,%rsp
  40221e:	49 89 fd             	mov    %rdi,%r13
  402221:	48 89 f5             	mov    %rsi,%rbp
  402224:	49 89 d4             	mov    %rdx,%r12
  402227:	bb 01 00 00 00       	mov    $0x1,%ebx
  40222c:	eb 3d                	jmp    40226b <rio_readlineb+0x57>
  40222e:	ba 01 00 00 00       	mov    $0x1,%edx
  402233:	48 8d 74 24 0f       	lea    0xf(%rsp),%rsi
  402238:	4c 89 ef             	mov    %r13,%rdi
  40223b:	e8 4d ff ff ff       	callq  40218d <rio_read>
  402240:	83 f8 01             	cmp    $0x1,%eax
  402243:	75 12                	jne    402257 <rio_readlineb+0x43>
  402245:	48 8d 55 01          	lea    0x1(%rbp),%rdx
  402249:	0f b6 44 24 0f       	movzbl 0xf(%rsp),%eax
  40224e:	88 45 00             	mov    %al,0x0(%rbp)
  402251:	3c 0a                	cmp    $0xa,%al
  402253:	75 0f                	jne    402264 <rio_readlineb+0x50>
  402255:	eb 1b                	jmp    402272 <rio_readlineb+0x5e>
  402257:	85 c0                	test   %eax,%eax
  402259:	75 23                	jne    40227e <rio_readlineb+0x6a>
  40225b:	48 83 fb 01          	cmp    $0x1,%rbx
  40225f:	90                   	nop
  402260:	75 13                	jne    402275 <rio_readlineb+0x61>
  402262:	eb 23                	jmp    402287 <rio_readlineb+0x73>
  402264:	48 83 c3 01          	add    $0x1,%rbx
  402268:	48 89 d5             	mov    %rdx,%rbp
  40226b:	4c 39 e3             	cmp    %r12,%rbx
  40226e:	72 be                	jb     40222e <rio_readlineb+0x1a>
  402270:	eb 03                	jmp    402275 <rio_readlineb+0x61>
  402272:	48 89 d5             	mov    %rdx,%rbp
  402275:	c6 45 00 00          	movb   $0x0,0x0(%rbp)
  402279:	48 89 d8             	mov    %rbx,%rax
  40227c:	eb 0e                	jmp    40228c <rio_readlineb+0x78>
  40227e:	48 c7 c0 ff ff ff ff 	mov    $0xffffffffffffffff,%rax
  402285:	eb 05                	jmp    40228c <rio_readlineb+0x78>
  402287:	b8 00 00 00 00       	mov    $0x0,%eax
  40228c:	48 83 c4 18          	add    $0x18,%rsp
  402290:	5b                   	pop    %rbx
  402291:	5d                   	pop    %rbp
  402292:	41 5c                	pop    %r12
  402294:	41 5d                	pop    %r13
  402296:	c3                   	retq   

0000000000402297 <submitr>:
  402297:	41 57                	push   %r15
  402299:	41 56                	push   %r14
  40229b:	41 55                	push   %r13
  40229d:	41 54                	push   %r12
  40229f:	55                   	push   %rbp
  4022a0:	53                   	push   %rbx
  4022a1:	48 81 ec 48 a0 00 00 	sub    $0xa048,%rsp
  4022a8:	49 89 fc             	mov    %rdi,%r12
  4022ab:	89 74 24 04          	mov    %esi,0x4(%rsp)
  4022af:	49 89 d7             	mov    %rdx,%r15
  4022b2:	49 89 ce             	mov    %rcx,%r14
  4022b5:	4c 89 44 24 08       	mov    %r8,0x8(%rsp)
  4022ba:	4d 89 cd             	mov    %r9,%r13
  4022bd:	48 8b 9c 24 80 a0 00 	mov    0xa080(%rsp),%rbx
  4022c4:	00 
  4022c5:	c7 84 24 1c 20 00 00 	movl   $0x0,0x201c(%rsp)
  4022cc:	00 00 00 00 
  4022d0:	ba 00 00 00 00       	mov    $0x0,%edx
  4022d5:	be 01 00 00 00       	mov    $0x1,%esi
  4022da:	bf 02 00 00 00       	mov    $0x2,%edi
  4022df:	e8 fc ea ff ff       	callq  400de0 <socket@plt>
  4022e4:	89 c5                	mov    %eax,%ebp
  4022e6:	85 c0                	test   %eax,%eax
  4022e8:	79 4e                	jns    402338 <submitr+0xa1>
  4022ea:	48 b8 45 72 72 6f 72 	movabs $0x43203a726f727245,%rax
  4022f1:	3a 20 43 
  4022f4:	48 89 03             	mov    %rax,(%rbx)
  4022f7:	48 b8 6c 69 65 6e 74 	movabs $0x6e7520746e65696c,%rax
  4022fe:	20 75 6e 
  402301:	48 89 43 08          	mov    %rax,0x8(%rbx)
  402305:	48 b8 61 62 6c 65 20 	movabs $0x206f7420656c6261,%rax
  40230c:	74 6f 20 
  40230f:	48 89 43 10          	mov    %rax,0x10(%rbx)
  402313:	48 b8 63 72 65 61 74 	movabs $0x7320657461657263,%rax
  40231a:	65 20 73 
  40231d:	48 89 43 18          	mov    %rax,0x18(%rbx)
  402321:	c7 43 20 6f 63 6b 65 	movl   $0x656b636f,0x20(%rbx)
  402328:	66 c7 43 24 74 00    	movw   $0x74,0x24(%rbx)
  40232e:	b8 ff ff ff ff       	mov    $0xffffffff,%eax
  402333:	e9 68 06 00 00       	jmpq   4029a0 <submitr+0x709>
  402338:	4c 89 e7             	mov    %r12,%rdi
  40233b:	e8 90 e9 ff ff       	callq  400cd0 <gethostbyname@plt>
  402340:	48 85 c0             	test   %rax,%rax
  402343:	75 67                	jne    4023ac <submitr+0x115>
  402345:	48 b8 45 72 72 6f 72 	movabs $0x44203a726f727245,%rax
  40234c:	3a 20 44 
  40234f:	48 89 03             	mov    %rax,(%rbx)
  402352:	48 b8 4e 53 20 69 73 	movabs $0x6e7520736920534e,%rax
  402359:	20 75 6e 
  40235c:	48 89 43 08          	mov    %rax,0x8(%rbx)
  402360:	48 b8 61 62 6c 65 20 	movabs $0x206f7420656c6261,%rax
  402367:	74 6f 20 
  40236a:	48 89 43 10          	mov    %rax,0x10(%rbx)
  40236e:	48 b8 72 65 73 6f 6c 	movabs $0x2065766c6f736572,%rax
  402375:	76 65 20 
  402378:	48 89 43 18          	mov    %rax,0x18(%rbx)
  40237c:	48 b8 73 65 72 76 65 	movabs $0x6120726576726573,%rax
  402383:	72 20 61 
  402386:	48 89 43 20          	mov    %rax,0x20(%rbx)
  40238a:	c7 43 28 64 64 72 65 	movl   $0x65726464,0x28(%rbx)
  402391:	66 c7 43 2c 73 73    	movw   $0x7373,0x2c(%rbx)
  402397:	c6 43 2e 00          	movb   $0x0,0x2e(%rbx)
  40239b:	89 ef                	mov    %ebp,%edi
  40239d:	e8 ee e8 ff ff       	callq  400c90 <close@plt>
  4023a2:	b8 ff ff ff ff       	mov    $0xffffffff,%eax
  4023a7:	e9 f4 05 00 00       	jmpq   4029a0 <submitr+0x709>
  4023ac:	48 c7 84 24 30 a0 00 	movq   $0x0,0xa030(%rsp)
  4023b3:	00 00 00 00 00 
  4023b8:	48 c7 84 24 38 a0 00 	movq   $0x0,0xa038(%rsp)
  4023bf:	00 00 00 00 00 
  4023c4:	66 c7 84 24 30 a0 00 	movw   $0x2,0xa030(%rsp)
  4023cb:	00 02 00 
  4023ce:	48 8b 48 18          	mov    0x18(%rax),%rcx
  4023d2:	48 63 50 14          	movslq 0x14(%rax),%rdx
  4023d6:	48 8d b4 24 34 a0 00 	lea    0xa034(%rsp),%rsi
  4023dd:	00 
  4023de:	48 8b 39             	mov    (%rcx),%rdi
  4023e1:	e8 7a e9 ff ff       	callq  400d60 <bcopy@plt>
  4023e6:	0f b7 44 24 04       	movzwl 0x4(%rsp),%eax
  4023eb:	66 c1 c8 08          	ror    $0x8,%ax
  4023ef:	66 89 84 24 32 a0 00 	mov    %ax,0xa032(%rsp)
  4023f6:	00 
  4023f7:	ba 10 00 00 00       	mov    $0x10,%edx
  4023fc:	48 8d b4 24 30 a0 00 	lea    0xa030(%rsp),%rsi
  402403:	00 
  402404:	89 ef                	mov    %ebp,%edi
  402406:	e8 c5 e9 ff ff       	callq  400dd0 <connect@plt>
  40240b:	85 c0                	test   %eax,%eax
  40240d:	79 59                	jns    402468 <submitr+0x1d1>
  40240f:	48 b8 45 72 72 6f 72 	movabs $0x55203a726f727245,%rax
  402416:	3a 20 55 
  402419:	48 89 03             	mov    %rax,(%rbx)
  40241c:	48 b8 6e 61 62 6c 65 	movabs $0x6f7420656c62616e,%rax
  402423:	20 74 6f 
  402426:	48 89 43 08          	mov    %rax,0x8(%rbx)
  40242a:	48 b8 20 63 6f 6e 6e 	movabs $0x7463656e6e6f6320,%rax
  402431:	65 63 74 
  402434:	48 89 43 10          	mov    %rax,0x10(%rbx)
  402438:	48 b8 20 74 6f 20 74 	movabs $0x20656874206f7420,%rax
  40243f:	68 65 20 
  402442:	48 89 43 18          	mov    %rax,0x18(%rbx)
  402446:	c7 43 20 73 65 72 76 	movl   $0x76726573,0x20(%rbx)
  40244d:	66 c7 43 24 65 72    	movw   $0x7265,0x24(%rbx)
  402453:	c6 43 26 00          	movb   $0x0,0x26(%rbx)
  402457:	89 ef                	mov    %ebp,%edi
  402459:	e8 32 e8 ff ff       	callq  400c90 <close@plt>
  40245e:	b8 ff ff ff ff       	mov    $0xffffffff,%eax
  402463:	e9 38 05 00 00       	jmpq   4029a0 <submitr+0x709>
  402468:	48 c7 c2 ff ff ff ff 	mov    $0xffffffffffffffff,%rdx
  40246f:	4c 89 ef             	mov    %r13,%rdi
  402472:	b8 00 00 00 00       	mov    $0x0,%eax
  402477:	48 89 d1             	mov    %rdx,%rcx
  40247a:	f2 ae                	repnz scas %es:(%rdi),%al
  40247c:	48 f7 d1             	not    %rcx
  40247f:	48 89 ce             	mov    %rcx,%rsi
  402482:	4c 89 ff             	mov    %r15,%rdi
  402485:	48 89 d1             	mov    %rdx,%rcx
  402488:	f2 ae                	repnz scas %es:(%rdi),%al
  40248a:	48 f7 d1             	not    %rcx
  40248d:	49 89 c8             	mov    %rcx,%r8
  402490:	4c 89 f7             	mov    %r14,%rdi
  402493:	48 89 d1             	mov    %rdx,%rcx
  402496:	f2 ae                	repnz scas %es:(%rdi),%al
  402498:	49 29 c8             	sub    %rcx,%r8
  40249b:	48 8b 7c 24 08       	mov    0x8(%rsp),%rdi
  4024a0:	48 89 d1             	mov    %rdx,%rcx
  4024a3:	f2 ae                	repnz scas %es:(%rdi),%al
  4024a5:	49 29 c8             	sub    %rcx,%r8
  4024a8:	48 8d 44 76 fd       	lea    -0x3(%rsi,%rsi,2),%rax
  4024ad:	49 8d 44 00 7b       	lea    0x7b(%r8,%rax,1),%rax
  4024b2:	48 3d 00 20 00 00    	cmp    $0x2000,%rax
  4024b8:	76 72                	jbe    40252c <submitr+0x295>
  4024ba:	48 b8 45 72 72 6f 72 	movabs $0x52203a726f727245,%rax
  4024c1:	3a 20 52 
  4024c4:	48 89 03             	mov    %rax,(%rbx)
  4024c7:	48 b8 65 73 75 6c 74 	movabs $0x747320746c757365,%rax
  4024ce:	20 73 74 
  4024d1:	48 89 43 08          	mov    %rax,0x8(%rbx)
  4024d5:	48 b8 72 69 6e 67 20 	movabs $0x6f6f7420676e6972,%rax
  4024dc:	74 6f 6f 
  4024df:	48 89 43 10          	mov    %rax,0x10(%rbx)
  4024e3:	48 b8 20 6c 61 72 67 	movabs $0x202e656772616c20,%rax
  4024ea:	65 2e 20 
  4024ed:	48 89 43 18          	mov    %rax,0x18(%rbx)
  4024f1:	48 b8 49 6e 63 72 65 	movabs $0x6573616572636e49,%rax
  4024f8:	61 73 65 
  4024fb:	48 89 43 20          	mov    %rax,0x20(%rbx)
  4024ff:	48 b8 20 53 55 42 4d 	movabs $0x5254494d42555320,%rax
  402506:	49 54 52 
  402509:	48 89 43 28          	mov    %rax,0x28(%rbx)
  40250d:	48 b8 5f 4d 41 58 42 	movabs $0x46554258414d5f,%rax
  402514:	55 46 00 
  402517:	48 89 43 30          	mov    %rax,0x30(%rbx)
  40251b:	89 ef                	mov    %ebp,%edi
  40251d:	e8 6e e7 ff ff       	callq  400c90 <close@plt>
  402522:	b8 ff ff ff ff       	mov    $0xffffffff,%eax
  402527:	e9 74 04 00 00       	jmpq   4029a0 <submitr+0x709>
  40252c:	48 8d b4 24 20 40 00 	lea    0x4020(%rsp),%rsi
  402533:	00 
  402534:	b9 00 04 00 00       	mov    $0x400,%ecx
  402539:	b8 00 00 00 00       	mov    $0x0,%eax
  40253e:	48 89 f7             	mov    %rsi,%rdi
  402541:	f3 48 ab             	rep stos %rax,%es:(%rdi)
  402544:	4c 89 ef             	mov    %r13,%rdi
  402547:	e8 0f fb ff ff       	callq  40205b <urlencode>
  40254c:	85 c0                	test   %eax,%eax
  40254e:	0f 89 8a 00 00 00    	jns    4025de <submitr+0x347>
  402554:	48 b8 45 72 72 6f 72 	movabs $0x52203a726f727245,%rax
  40255b:	3a 20 52 
  40255e:	48 89 03             	mov    %rax,(%rbx)
  402561:	48 b8 65 73 75 6c 74 	movabs $0x747320746c757365,%rax
  402568:	20 73 74 
  40256b:	48 89 43 08          	mov    %rax,0x8(%rbx)
  40256f:	48 b8 72 69 6e 67 20 	movabs $0x6e6f6320676e6972,%rax
  402576:	63 6f 6e 
  402579:	48 89 43 10          	mov    %rax,0x10(%rbx)
  40257d:	48 b8 74 61 69 6e 73 	movabs $0x6e6120736e696174,%rax
  402584:	20 61 6e 
  402587:	48 89 43 18          	mov    %rax,0x18(%rbx)
  40258b:	48 b8 20 69 6c 6c 65 	movabs $0x6c6167656c6c6920,%rax
  402592:	67 61 6c 
  402595:	48 89 43 20          	mov    %rax,0x20(%rbx)
  402599:	48 b8 20 6f 72 20 75 	movabs $0x72706e7520726f20,%rax
  4025a0:	6e 70 72 
  4025a3:	48 89 43 28          	mov    %rax,0x28(%rbx)
  4025a7:	48 b8 69 6e 74 61 62 	movabs $0x20656c6261746e69,%rax
  4025ae:	6c 65 20 
  4025b1:	48 89 43 30          	mov    %rax,0x30(%rbx)
  4025b5:	48 b8 63 68 61 72 61 	movabs $0x6574636172616863,%rax
  4025bc:	63 74 65 
  4025bf:	48 89 43 38          	mov    %rax,0x38(%rbx)
  4025c3:	66 c7 43 40 72 2e    	movw   $0x2e72,0x40(%rbx)
  4025c9:	c6 43 42 00          	movb   $0x0,0x42(%rbx)
  4025cd:	89 ef                	mov    %ebp,%edi
  4025cf:	e8 bc e6 ff ff       	callq  400c90 <close@plt>
  4025d4:	b8 ff ff ff ff       	mov    $0xffffffff,%eax
  4025d9:	e9 c2 03 00 00       	jmpq   4029a0 <submitr+0x709>
  4025de:	4d 89 e1             	mov    %r12,%r9
  4025e1:	4c 8d 84 24 20 40 00 	lea    0x4020(%rsp),%r8
  4025e8:	00 
  4025e9:	4c 89 f9             	mov    %r15,%rcx
  4025ec:	4c 89 f2             	mov    %r14,%rdx
  4025ef:	be 58 34 40 00       	mov    $0x403458,%esi
  4025f4:	48 8d bc 24 20 60 00 	lea    0x6020(%rsp),%rdi
  4025fb:	00 
  4025fc:	b8 00 00 00 00       	mov    $0x0,%eax
  402601:	e8 aa e7 ff ff       	callq  400db0 <sprintf@plt>
  402606:	48 8d bc 24 20 60 00 	lea    0x6020(%rsp),%rdi
  40260d:	00 
  40260e:	b8 00 00 00 00       	mov    $0x0,%eax
  402613:	48 c7 c1 ff ff ff ff 	mov    $0xffffffffffffffff,%rcx
  40261a:	f2 ae                	repnz scas %es:(%rdi),%al
  40261c:	48 f7 d1             	not    %rcx
  40261f:	48 8d 51 ff          	lea    -0x1(%rcx),%rdx
  402623:	48 8d b4 24 20 60 00 	lea    0x6020(%rsp),%rsi
  40262a:	00 
  40262b:	89 ef                	mov    %ebp,%edi
  40262d:	e8 ff fa ff ff       	callq  402131 <rio_writen>
  402632:	48 85 c0             	test   %rax,%rax
  402635:	79 6e                	jns    4026a5 <submitr+0x40e>
  402637:	48 b8 45 72 72 6f 72 	movabs $0x43203a726f727245,%rax
  40263e:	3a 20 43 
  402641:	48 89 03             	mov    %rax,(%rbx)
  402644:	48 b8 6c 69 65 6e 74 	movabs $0x6e7520746e65696c,%rax
  40264b:	20 75 6e 
  40264e:	48 89 43 08          	mov    %rax,0x8(%rbx)
  402652:	48 b8 61 62 6c 65 20 	movabs $0x206f7420656c6261,%rax
  402659:	74 6f 20 
  40265c:	48 89 43 10          	mov    %rax,0x10(%rbx)
  402660:	48 b8 77 72 69 74 65 	movabs $0x6f74206574697277,%rax
  402667:	20 74 6f 
  40266a:	48 89 43 18          	mov    %rax,0x18(%rbx)
  40266e:	48 b8 20 74 68 65 20 	movabs $0x7365722065687420,%rax
  402675:	72 65 73 
  402678:	48 89 43 20          	mov    %rax,0x20(%rbx)
  40267c:	48 b8 75 6c 74 20 73 	movabs $0x7672657320746c75,%rax
  402683:	65 72 76 
  402686:	48 89 43 28          	mov    %rax,0x28(%rbx)
  40268a:	66 c7 43 30 65 72    	movw   $0x7265,0x30(%rbx)
  402690:	c6 43 32 00          	movb   $0x0,0x32(%rbx)
  402694:	89 ef                	mov    %ebp,%edi
  402696:	e8 f5 e5 ff ff       	callq  400c90 <close@plt>
  40269b:	b8 ff ff ff ff       	mov    $0xffffffff,%eax
  4026a0:	e9 fb 02 00 00       	jmpq   4029a0 <submitr+0x709>
  4026a5:	89 ee                	mov    %ebp,%esi
  4026a7:	48 8d bc 24 20 80 00 	lea    0x8020(%rsp),%rdi
  4026ae:	00 
  4026af:	e8 6c f9 ff ff       	callq  402020 <rio_readinitb>
  4026b4:	ba 00 20 00 00       	mov    $0x2000,%edx
  4026b9:	48 8d b4 24 20 60 00 	lea    0x6020(%rsp),%rsi
  4026c0:	00 
  4026c1:	48 8d bc 24 20 80 00 	lea    0x8020(%rsp),%rdi
  4026c8:	00 
  4026c9:	e8 46 fb ff ff       	callq  402214 <rio_readlineb>
  4026ce:	48 85 c0             	test   %rax,%rax
  4026d1:	7f 7d                	jg     402750 <submitr+0x4b9>
  4026d3:	48 b8 45 72 72 6f 72 	movabs $0x43203a726f727245,%rax
  4026da:	3a 20 43 
  4026dd:	48 89 03             	mov    %rax,(%rbx)
  4026e0:	48 b8 6c 69 65 6e 74 	movabs $0x6e7520746e65696c,%rax
  4026e7:	20 75 6e 
  4026ea:	48 89 43 08          	mov    %rax,0x8(%rbx)
  4026ee:	48 b8 61 62 6c 65 20 	movabs $0x206f7420656c6261,%rax
  4026f5:	74 6f 20 
  4026f8:	48 89 43 10          	mov    %rax,0x10(%rbx)
  4026fc:	48 b8 72 65 61 64 20 	movabs $0x7269662064616572,%rax
  402703:	66 69 72 
  402706:	48 89 43 18          	mov    %rax,0x18(%rbx)
  40270a:	48 b8 73 74 20 68 65 	movabs $0x6564616568207473,%rax
  402711:	61 64 65 
  402714:	48 89 43 20          	mov    %rax,0x20(%rbx)
  402718:	48 b8 72 20 66 72 6f 	movabs $0x72206d6f72662072,%rax
  40271f:	6d 20 72 
  402722:	48 89 43 28          	mov    %rax,0x28(%rbx)
  402726:	48 b8 65 73 75 6c 74 	movabs $0x657320746c757365,%rax
  40272d:	20 73 65 
  402730:	48 89 43 30          	mov    %rax,0x30(%rbx)
  402734:	c7 43 38 72 76 65 72 	movl   $0x72657672,0x38(%rbx)
  40273b:	c6 43 3c 00          	movb   $0x0,0x3c(%rbx)
  40273f:	89 ef                	mov    %ebp,%edi
  402741:	e8 4a e5 ff ff       	callq  400c90 <close@plt>
  402746:	b8 ff ff ff ff       	mov    $0xffffffff,%eax
  40274b:	e9 50 02 00 00       	jmpq   4029a0 <submitr+0x709>
  402750:	4c 8d 44 24 10       	lea    0x10(%rsp),%r8
  402755:	48 8d 8c 24 1c 20 00 	lea    0x201c(%rsp),%rcx
  40275c:	00 
  40275d:	48 8d 94 24 20 20 00 	lea    0x2020(%rsp),%rdx
  402764:	00 
  402765:	be cf 34 40 00       	mov    $0x4034cf,%esi
  40276a:	48 8d bc 24 20 60 00 	lea    0x6020(%rsp),%rdi
  402771:	00 
  402772:	b8 00 00 00 00       	mov    $0x0,%eax
  402777:	e8 c4 e5 ff ff       	callq  400d40 <__isoc99_sscanf@plt>
  40277c:	e9 98 00 00 00       	jmpq   402819 <submitr+0x582>
  402781:	ba 00 20 00 00       	mov    $0x2000,%edx
  402786:	48 8d b4 24 20 60 00 	lea    0x6020(%rsp),%rsi
  40278d:	00 
  40278e:	48 8d bc 24 20 80 00 	lea    0x8020(%rsp),%rdi
  402795:	00 
  402796:	e8 79 fa ff ff       	callq  402214 <rio_readlineb>
  40279b:	48 85 c0             	test   %rax,%rax
  40279e:	7f 79                	jg     402819 <submitr+0x582>
  4027a0:	48 b8 45 72 72 6f 72 	movabs $0x43203a726f727245,%rax
  4027a7:	3a 20 43 
  4027aa:	48 89 03             	mov    %rax,(%rbx)
  4027ad:	48 b8 6c 69 65 6e 74 	movabs $0x6e7520746e65696c,%rax
  4027b4:	20 75 6e 
  4027b7:	48 89 43 08          	mov    %rax,0x8(%rbx)
  4027bb:	48 b8 61 62 6c 65 20 	movabs $0x206f7420656c6261,%rax
  4027c2:	74 6f 20 
  4027c5:	48 89 43 10          	mov    %rax,0x10(%rbx)
  4027c9:	48 b8 72 65 61 64 20 	movabs $0x6165682064616572,%rax
  4027d0:	68 65 61 
  4027d3:	48 89 43 18          	mov    %rax,0x18(%rbx)
  4027d7:	48 b8 64 65 72 73 20 	movabs $0x6f72662073726564,%rax
  4027de:	66 72 6f 
  4027e1:	48 89 43 20          	mov    %rax,0x20(%rbx)
  4027e5:	48 b8 6d 20 74 68 65 	movabs $0x657220656874206d,%rax
  4027ec:	20 72 65 
  4027ef:	48 89 43 28          	mov    %rax,0x28(%rbx)
  4027f3:	48 b8 73 75 6c 74 20 	movabs $0x72657320746c7573,%rax
  4027fa:	73 65 72 
  4027fd:	48 89 43 30          	mov    %rax,0x30(%rbx)
  402801:	c7 43 38 76 65 72 00 	movl   $0x726576,0x38(%rbx)
  402808:	89 ef                	mov    %ebp,%edi
  40280a:	e8 81 e4 ff ff       	callq  400c90 <close@plt>
  40280f:	b8 ff ff ff ff       	mov    $0xffffffff,%eax
  402814:	e9 87 01 00 00       	jmpq   4029a0 <submitr+0x709>
  402819:	0f b6 84 24 20 60 00 	movzbl 0x6020(%rsp),%eax
  402820:	00 
  402821:	83 e8 0d             	sub    $0xd,%eax
  402824:	75 15                	jne    40283b <submitr+0x5a4>
  402826:	0f b6 84 24 21 60 00 	movzbl 0x6021(%rsp),%eax
  40282d:	00 
  40282e:	83 e8 0a             	sub    $0xa,%eax
  402831:	75 08                	jne    40283b <submitr+0x5a4>
  402833:	0f b6 84 24 22 60 00 	movzbl 0x6022(%rsp),%eax
  40283a:	00 
  40283b:	85 c0                	test   %eax,%eax
  40283d:	0f 85 3e ff ff ff    	jne    402781 <submitr+0x4ea>
  402843:	ba 00 20 00 00       	mov    $0x2000,%edx
  402848:	48 8d b4 24 20 60 00 	lea    0x6020(%rsp),%rsi
  40284f:	00 
  402850:	48 8d bc 24 20 80 00 	lea    0x8020(%rsp),%rdi
  402857:	00 
  402858:	e8 b7 f9 ff ff       	callq  402214 <rio_readlineb>
  40285d:	48 85 c0             	test   %rax,%rax
  402860:	0f 8f 83 00 00 00    	jg     4028e9 <submitr+0x652>
  402866:	48 b8 45 72 72 6f 72 	movabs $0x43203a726f727245,%rax
  40286d:	3a 20 43 
  402870:	48 89 03             	mov    %rax,(%rbx)
  402873:	48 b8 6c 69 65 6e 74 	movabs $0x6e7520746e65696c,%rax
  40287a:	20 75 6e 
  40287d:	48 89 43 08          	mov    %rax,0x8(%rbx)
  402881:	48 b8 61 62 6c 65 20 	movabs $0x206f7420656c6261,%rax
  402888:	74 6f 20 
  40288b:	48 89 43 10          	mov    %rax,0x10(%rbx)
  40288f:	48 b8 72 65 61 64 20 	movabs $0x6174732064616572,%rax
  402896:	73 74 61 
  402899:	48 89 43 18          	mov    %rax,0x18(%rbx)
  40289d:	48 b8 74 75 73 20 6d 	movabs $0x7373656d20737574,%rax
  4028a4:	65 73 73 
  4028a7:	48 89 43 20          	mov    %rax,0x20(%rbx)
  4028ab:	48 b8 61 67 65 20 66 	movabs $0x6d6f726620656761,%rax
  4028b2:	72 6f 6d 
  4028b5:	48 89 43 28          	mov    %rax,0x28(%rbx)
  4028b9:	48 b8 20 72 65 73 75 	movabs $0x20746c7573657220,%rax
  4028c0:	6c 74 20 
  4028c3:	48 89 43 30          	mov    %rax,0x30(%rbx)
  4028c7:	c7 43 38 73 65 72 76 	movl   $0x76726573,0x38(%rbx)
  4028ce:	66 c7 43 3c 65 72    	movw   $0x7265,0x3c(%rbx)
  4028d4:	c6 43 3e 00          	movb   $0x0,0x3e(%rbx)
  4028d8:	89 ef                	mov    %ebp,%edi
  4028da:	e8 b1 e3 ff ff       	callq  400c90 <close@plt>
  4028df:	b8 ff ff ff ff       	mov    $0xffffffff,%eax
  4028e4:	e9 b7 00 00 00       	jmpq   4029a0 <submitr+0x709>
  4028e9:	8b 94 24 1c 20 00 00 	mov    0x201c(%rsp),%edx
  4028f0:	81 fa c8 00 00 00    	cmp    $0xc8,%edx
  4028f6:	74 28                	je     402920 <submitr+0x689>
  4028f8:	48 8d 4c 24 10       	lea    0x10(%rsp),%rcx
  4028fd:	be 98 34 40 00       	mov    $0x403498,%esi
  402902:	48 89 df             	mov    %rbx,%rdi
  402905:	b8 00 00 00 00       	mov    $0x0,%eax
  40290a:	e8 a1 e4 ff ff       	callq  400db0 <sprintf@plt>
  40290f:	89 ef                	mov    %ebp,%edi
  402911:	e8 7a e3 ff ff       	callq  400c90 <close@plt>
  402916:	b8 ff ff ff ff       	mov    $0xffffffff,%eax
  40291b:	e9 80 00 00 00       	jmpq   4029a0 <submitr+0x709>
  402920:	48 8d b4 24 20 60 00 	lea    0x6020(%rsp),%rsi
  402927:	00 
  402928:	48 89 df             	mov    %rbx,%rdi
  40292b:	e8 f0 e2 ff ff       	callq  400c20 <strcpy@plt>
  402930:	89 ef                	mov    %ebp,%edi
  402932:	e8 59 e3 ff ff       	callq  400c90 <close@plt>
  402937:	0f b6 03             	movzbl (%rbx),%eax
  40293a:	83 e8 4f             	sub    $0x4f,%eax
  40293d:	75 18                	jne    402957 <submitr+0x6c0>
  40293f:	0f b6 53 01          	movzbl 0x1(%rbx),%edx
  402943:	83 ea 4b             	sub    $0x4b,%edx
  402946:	75 11                	jne    402959 <submitr+0x6c2>
  402948:	0f b6 53 02          	movzbl 0x2(%rbx),%edx
  40294c:	83 ea 0a             	sub    $0xa,%edx
  40294f:	75 08                	jne    402959 <submitr+0x6c2>
  402951:	0f b6 53 03          	movzbl 0x3(%rbx),%edx
  402955:	eb 02                	jmp    402959 <submitr+0x6c2>
  402957:	89 c2                	mov    %eax,%edx
  402959:	85 d2                	test   %edx,%edx
  40295b:	74 30                	je     40298d <submitr+0x6f6>
  40295d:	bf e0 34 40 00       	mov    $0x4034e0,%edi
  402962:	b9 05 00 00 00       	mov    $0x5,%ecx
  402967:	48 89 de             	mov    %rbx,%rsi
  40296a:	f3 a6                	repz cmpsb %es:(%rdi),%ds:(%rsi)
  40296c:	0f 97 c1             	seta   %cl
  40296f:	0f 92 c2             	setb   %dl
  402972:	38 d1                	cmp    %dl,%cl
  402974:	74 1e                	je     402994 <submitr+0x6fd>
  402976:	85 c0                	test   %eax,%eax
  402978:	75 0d                	jne    402987 <submitr+0x6f0>
  40297a:	0f b6 43 01          	movzbl 0x1(%rbx),%eax
  40297e:	83 e8 4b             	sub    $0x4b,%eax
  402981:	75 04                	jne    402987 <submitr+0x6f0>
  402983:	0f b6 43 02          	movzbl 0x2(%rbx),%eax
  402987:	85 c0                	test   %eax,%eax
  402989:	75 10                	jne    40299b <submitr+0x704>
  40298b:	eb 13                	jmp    4029a0 <submitr+0x709>
  40298d:	b8 00 00 00 00       	mov    $0x0,%eax
  402992:	eb 0c                	jmp    4029a0 <submitr+0x709>
  402994:	b8 00 00 00 00       	mov    $0x0,%eax
  402999:	eb 05                	jmp    4029a0 <submitr+0x709>
  40299b:	b8 ff ff ff ff       	mov    $0xffffffff,%eax
  4029a0:	48 81 c4 48 a0 00 00 	add    $0xa048,%rsp
  4029a7:	5b                   	pop    %rbx
  4029a8:	5d                   	pop    %rbp
  4029a9:	41 5c                	pop    %r12
  4029ab:	41 5d                	pop    %r13
  4029ad:	41 5e                	pop    %r14
  4029af:	41 5f                	pop    %r15
  4029b1:	c3                   	retq   

00000000004029b2 <init_timeout>:
  4029b2:	53                   	push   %rbx
  4029b3:	89 fb                	mov    %edi,%ebx
  4029b5:	85 ff                	test   %edi,%edi
  4029b7:	74 1f                	je     4029d8 <init_timeout+0x26>
  4029b9:	85 ff                	test   %edi,%edi
  4029bb:	79 05                	jns    4029c2 <init_timeout+0x10>
  4029bd:	bb 00 00 00 00       	mov    $0x0,%ebx
  4029c2:	be 32 20 40 00       	mov    $0x402032,%esi
  4029c7:	bf 0e 00 00 00       	mov    $0xe,%edi
  4029cc:	e8 ef e2 ff ff       	callq  400cc0 <signal@plt>
  4029d1:	89 df                	mov    %ebx,%edi
  4029d3:	e8 a8 e2 ff ff       	callq  400c80 <alarm@plt>
  4029d8:	5b                   	pop    %rbx
  4029d9:	c3                   	retq   

00000000004029da <init_driver>:
  4029da:	55                   	push   %rbp
  4029db:	53                   	push   %rbx
  4029dc:	48 83 ec 18          	sub    $0x18,%rsp
  4029e0:	48 89 fd             	mov    %rdi,%rbp
  4029e3:	be 01 00 00 00       	mov    $0x1,%esi
  4029e8:	bf 0d 00 00 00       	mov    $0xd,%edi
  4029ed:	e8 ce e2 ff ff       	callq  400cc0 <signal@plt>
  4029f2:	be 01 00 00 00       	mov    $0x1,%esi
  4029f7:	bf 1d 00 00 00       	mov    $0x1d,%edi
  4029fc:	e8 bf e2 ff ff       	callq  400cc0 <signal@plt>
  402a01:	be 01 00 00 00       	mov    $0x1,%esi
  402a06:	bf 1d 00 00 00       	mov    $0x1d,%edi
  402a0b:	e8 b0 e2 ff ff       	callq  400cc0 <signal@plt>
  402a10:	ba 00 00 00 00       	mov    $0x0,%edx
  402a15:	be 01 00 00 00       	mov    $0x1,%esi
  402a1a:	bf 02 00 00 00       	mov    $0x2,%edi
  402a1f:	e8 bc e3 ff ff       	callq  400de0 <socket@plt>
  402a24:	89 c3                	mov    %eax,%ebx
  402a26:	85 c0                	test   %eax,%eax
  402a28:	79 4f                	jns    402a79 <init_driver+0x9f>
  402a2a:	48 b8 45 72 72 6f 72 	movabs $0x43203a726f727245,%rax
  402a31:	3a 20 43 
  402a34:	48 89 45 00          	mov    %rax,0x0(%rbp)
  402a38:	48 b8 6c 69 65 6e 74 	movabs $0x6e7520746e65696c,%rax
  402a3f:	20 75 6e 
  402a42:	48 89 45 08          	mov    %rax,0x8(%rbp)
  402a46:	48 b8 61 62 6c 65 20 	movabs $0x206f7420656c6261,%rax
  402a4d:	74 6f 20 
  402a50:	48 89 45 10          	mov    %rax,0x10(%rbp)
  402a54:	48 b8 63 72 65 61 74 	movabs $0x7320657461657263,%rax
  402a5b:	65 20 73 
  402a5e:	48 89 45 18          	mov    %rax,0x18(%rbp)
  402a62:	c7 45 20 6f 63 6b 65 	movl   $0x656b636f,0x20(%rbp)
  402a69:	66 c7 45 24 74 00    	movw   $0x74,0x24(%rbp)
  402a6f:	b8 ff ff ff ff       	mov    $0xffffffff,%eax
  402a74:	e9 23 01 00 00       	jmpq   402b9c <init_driver+0x1c2>
  402a79:	bf 24 30 40 00       	mov    $0x403024,%edi
  402a7e:	e8 4d e2 ff ff       	callq  400cd0 <gethostbyname@plt>
  402a83:	48 85 c0             	test   %rax,%rax
  402a86:	75 68                	jne    402af0 <init_driver+0x116>
  402a88:	48 b8 45 72 72 6f 72 	movabs $0x44203a726f727245,%rax
  402a8f:	3a 20 44 
  402a92:	48 89 45 00          	mov    %rax,0x0(%rbp)
  402a96:	48 b8 4e 53 20 69 73 	movabs $0x6e7520736920534e,%rax
  402a9d:	20 75 6e 
  402aa0:	48 89 45 08          	mov    %rax,0x8(%rbp)
  402aa4:	48 b8 61 62 6c 65 20 	movabs $0x206f7420656c6261,%rax
  402aab:	74 6f 20 
  402aae:	48 89 45 10          	mov    %rax,0x10(%rbp)
  402ab2:	48 b8 72 65 73 6f 6c 	movabs $0x2065766c6f736572,%rax
  402ab9:	76 65 20 
  402abc:	48 89 45 18          	mov    %rax,0x18(%rbp)
  402ac0:	48 b8 73 65 72 76 65 	movabs $0x6120726576726573,%rax
  402ac7:	72 20 61 
  402aca:	48 89 45 20          	mov    %rax,0x20(%rbp)
  402ace:	c7 45 28 64 64 72 65 	movl   $0x65726464,0x28(%rbp)
  402ad5:	66 c7 45 2c 73 73    	movw   $0x7373,0x2c(%rbp)
  402adb:	c6 45 2e 00          	movb   $0x0,0x2e(%rbp)
  402adf:	89 df                	mov    %ebx,%edi
  402ae1:	e8 aa e1 ff ff       	callq  400c90 <close@plt>
  402ae6:	b8 ff ff ff ff       	mov    $0xffffffff,%eax
  402aeb:	e9 ac 00 00 00       	jmpq   402b9c <init_driver+0x1c2>
  402af0:	48 c7 04 24 00 00 00 	movq   $0x0,(%rsp)
  402af7:	00 
  402af8:	48 c7 44 24 08 00 00 	movq   $0x0,0x8(%rsp)
  402aff:	00 00 
  402b01:	66 c7 04 24 02 00    	movw   $0x2,(%rsp)
  402b07:	48 8b 48 18          	mov    0x18(%rax),%rcx
  402b0b:	48 63 50 14          	movslq 0x14(%rax),%rdx
  402b0f:	48 8d 74 24 04       	lea    0x4(%rsp),%rsi
  402b14:	48 8b 39             	mov    (%rcx),%rdi
  402b17:	e8 44 e2 ff ff       	callq  400d60 <bcopy@plt>
  402b1c:	66 c7 44 24 02 3a 99 	movw   $0x993a,0x2(%rsp)
  402b23:	ba 10 00 00 00       	mov    $0x10,%edx
  402b28:	48 89 e6             	mov    %rsp,%rsi
  402b2b:	89 df                	mov    %ebx,%edi
  402b2d:	e8 9e e2 ff ff       	callq  400dd0 <connect@plt>
  402b32:	85 c0                	test   %eax,%eax
  402b34:	79 50                	jns    402b86 <init_driver+0x1ac>
  402b36:	48 b8 45 72 72 6f 72 	movabs $0x55203a726f727245,%rax
  402b3d:	3a 20 55 
  402b40:	48 89 45 00          	mov    %rax,0x0(%rbp)
  402b44:	48 b8 6e 61 62 6c 65 	movabs $0x6f7420656c62616e,%rax
  402b4b:	20 74 6f 
  402b4e:	48 89 45 08          	mov    %rax,0x8(%rbp)
  402b52:	48 b8 20 63 6f 6e 6e 	movabs $0x7463656e6e6f6320,%rax
  402b59:	65 63 74 
  402b5c:	48 89 45 10          	mov    %rax,0x10(%rbp)
  402b60:	48 b8 20 74 6f 20 73 	movabs $0x76726573206f7420,%rax
  402b67:	65 72 76 
  402b6a:	48 89 45 18          	mov    %rax,0x18(%rbp)
  402b6e:	66 c7 45 20 65 72    	movw   $0x7265,0x20(%rbp)
  402b74:	c6 45 22 00          	movb   $0x0,0x22(%rbp)
  402b78:	89 df                	mov    %ebx,%edi
  402b7a:	e8 11 e1 ff ff       	callq  400c90 <close@plt>
  402b7f:	b8 ff ff ff ff       	mov    $0xffffffff,%eax
  402b84:	eb 16                	jmp    402b9c <init_driver+0x1c2>
  402b86:	89 df                	mov    %ebx,%edi
  402b88:	e8 03 e1 ff ff       	callq  400c90 <close@plt>
  402b8d:	66 c7 45 00 4f 4b    	movw   $0x4b4f,0x0(%rbp)
  402b93:	c6 45 02 00          	movb   $0x0,0x2(%rbp)
  402b97:	b8 00 00 00 00       	mov    $0x0,%eax
  402b9c:	48 83 c4 18          	add    $0x18,%rsp
  402ba0:	5b                   	pop    %rbx
  402ba1:	5d                   	pop    %rbp
  402ba2:	c3                   	retq   

0000000000402ba3 <driver_post>:
  402ba3:	53                   	push   %rbx
  402ba4:	48 83 ec 10          	sub    $0x10,%rsp
  402ba8:	4c 89 cb             	mov    %r9,%rbx
  402bab:	45 85 c0             	test   %r8d,%r8d
  402bae:	74 22                	je     402bd2 <driver_post+0x2f>
  402bb0:	48 89 ce             	mov    %rcx,%rsi
  402bb3:	bf e5 34 40 00       	mov    $0x4034e5,%edi
  402bb8:	b8 00 00 00 00       	mov    $0x0,%eax
  402bbd:	e8 9e e0 ff ff       	callq  400c60 <printf@plt>
  402bc2:	66 c7 03 4f 4b       	movw   $0x4b4f,(%rbx)
  402bc7:	c6 43 02 00          	movb   $0x0,0x2(%rbx)
  402bcb:	b8 00 00 00 00       	mov    $0x0,%eax
  402bd0:	eb 39                	jmp    402c0b <driver_post+0x68>
  402bd2:	48 85 ff             	test   %rdi,%rdi
  402bd5:	74 26                	je     402bfd <driver_post+0x5a>
  402bd7:	80 3f 00             	cmpb   $0x0,(%rdi)
  402bda:	74 21                	je     402bfd <driver_post+0x5a>
  402bdc:	4c 89 0c 24          	mov    %r9,(%rsp)
  402be0:	49 89 c9             	mov    %rcx,%r9
  402be3:	49 89 d0             	mov    %rdx,%r8
  402be6:	48 89 f9             	mov    %rdi,%rcx
  402be9:	48 89 f2             	mov    %rsi,%rdx
  402bec:	be 99 3a 00 00       	mov    $0x3a99,%esi
  402bf1:	bf 24 30 40 00       	mov    $0x403024,%edi
  402bf6:	e8 9c f6 ff ff       	callq  402297 <submitr>
  402bfb:	eb 0e                	jmp    402c0b <driver_post+0x68>
  402bfd:	66 c7 03 4f 4b       	movw   $0x4b4f,(%rbx)
  402c02:	c6 43 02 00          	movb   $0x0,0x2(%rbx)
  402c06:	b8 00 00 00 00       	mov    $0x0,%eax
  402c0b:	48 83 c4 10          	add    $0x10,%rsp
  402c0f:	5b                   	pop    %rbx
  402c10:	c3                   	retq   
  402c11:	66 2e 0f 1f 84 00 00 	nopw   %cs:0x0(%rax,%rax,1)
  402c18:	00 00 00 
  402c1b:	0f 1f 44 00 00       	nopl   0x0(%rax,%rax,1)

0000000000402c20 <check>:
  402c20:	89 fa                	mov    %edi,%edx
  402c22:	c1 ea 1c             	shr    $0x1c,%edx
  402c25:	b8 00 00 00 00       	mov    $0x0,%eax
  402c2a:	85 d2                	test   %edx,%edx
  402c2c:	74 2e                	je     402c5c <check+0x3c>
  402c2e:	40 80 ff 0a          	cmp    $0xa,%dil
  402c32:	74 17                	je     402c4b <check+0x2b>
  402c34:	b9 08 00 00 00       	mov    $0x8,%ecx
  402c39:	89 f8                	mov    %edi,%eax
  402c3b:	d3 e8                	shr    %cl,%eax
  402c3d:	3c 0a                	cmp    $0xa,%al
  402c3f:	74 10                	je     402c51 <check+0x31>
  402c41:	83 c1 08             	add    $0x8,%ecx
  402c44:	83 f9 20             	cmp    $0x20,%ecx
  402c47:	75 f0                	jne    402c39 <check+0x19>
  402c49:	eb 0c                	jmp    402c57 <check+0x37>
  402c4b:	b8 00 00 00 00       	mov    $0x0,%eax
  402c50:	c3                   	retq   
  402c51:	b8 00 00 00 00       	mov    $0x0,%eax
  402c56:	c3                   	retq   
  402c57:	b8 01 00 00 00       	mov    $0x1,%eax
  402c5c:	f3 c3                	repz retq 

0000000000402c5e <gencookie>:
  402c5e:	53                   	push   %rbx
  402c5f:	83 c7 01             	add    $0x1,%edi
  402c62:	e8 99 df ff ff       	callq  400c00 <srandom@plt>
  402c67:	e8 b4 e0 ff ff       	callq  400d20 <random@plt>
  402c6c:	89 c3                	mov    %eax,%ebx
  402c6e:	89 c7                	mov    %eax,%edi
  402c70:	e8 ab ff ff ff       	callq  402c20 <check>
  402c75:	85 c0                	test   %eax,%eax
  402c77:	74 ee                	je     402c67 <gencookie+0x9>
  402c79:	89 d8                	mov    %ebx,%eax
  402c7b:	5b                   	pop    %rbx
  402c7c:	c3                   	retq   
  402c7d:	0f 1f 00             	nopl   (%rax)

0000000000402c80 <__libc_csu_init>:
  402c80:	41 57                	push   %r15
  402c82:	41 89 ff             	mov    %edi,%r15d
  402c85:	41 56                	push   %r14
  402c87:	49 89 f6             	mov    %rsi,%r14
  402c8a:	41 55                	push   %r13
  402c8c:	49 89 d5             	mov    %rdx,%r13
  402c8f:	41 54                	push   %r12
  402c91:	4c 8d 25 78 21 20 00 	lea    0x202178(%rip),%r12        # 604e10 <__frame_dummy_init_array_entry>
  402c98:	55                   	push   %rbp
  402c99:	48 8d 2d 78 21 20 00 	lea    0x202178(%rip),%rbp        # 604e18 <__init_array_end>
  402ca0:	53                   	push   %rbx
  402ca1:	4c 29 e5             	sub    %r12,%rbp
  402ca4:	31 db                	xor    %ebx,%ebx
  402ca6:	48 c1 fd 03          	sar    $0x3,%rbp
  402caa:	48 83 ec 08          	sub    $0x8,%rsp
  402cae:	e8 fd de ff ff       	callq  400bb0 <_init>
  402cb3:	48 85 ed             	test   %rbp,%rbp
  402cb6:	74 1e                	je     402cd6 <__libc_csu_init+0x56>
  402cb8:	0f 1f 84 00 00 00 00 	nopl   0x0(%rax,%rax,1)
  402cbf:	00 
  402cc0:	4c 89 ea             	mov    %r13,%rdx
  402cc3:	4c 89 f6             	mov    %r14,%rsi
  402cc6:	44 89 ff             	mov    %r15d,%edi
  402cc9:	41 ff 14 dc          	callq  *(%r12,%rbx,8)
  402ccd:	48 83 c3 01          	add    $0x1,%rbx
  402cd1:	48 39 eb             	cmp    %rbp,%rbx
  402cd4:	75 ea                	jne    402cc0 <__libc_csu_init+0x40>
  402cd6:	48 83 c4 08          	add    $0x8,%rsp
  402cda:	5b                   	pop    %rbx
  402cdb:	5d                   	pop    %rbp
  402cdc:	41 5c                	pop    %r12
  402cde:	41 5d                	pop    %r13
  402ce0:	41 5e                	pop    %r14
  402ce2:	41 5f                	pop    %r15
  402ce4:	c3                   	retq   
  402ce5:	90                   	nop
  402ce6:	66 2e 0f 1f 84 00 00 	nopw   %cs:0x0(%rax,%rax,1)
  402ced:	00 00 00 

0000000000402cf0 <__libc_csu_fini>:
  402cf0:	f3 c3                	repz retq 

Disassembly of section .fini:

0000000000402cf4 <_fini>:
  402cf4:	48 83 ec 08          	sub    $0x8,%rsp
  402cf8:	48 83 c4 08          	add    $0x8,%rsp
  402cfc:	c3                   	retq   
